
moon-buggy:     file format elf64-x86-64


Disassembly of section .init:

0000000000007000 <_init>:
    7000:	f3 0f 1e fa          	endbr64 
    7004:	48 83 ec 08          	sub    $0x8,%rsp
    7008:	48 8b 05 c1 7f 01 00 	mov    0x17fc1(%rip),%rax        # 1efd0 <__gmon_start__@Base>
    700f:	48 85 c0             	test   %rax,%rax
    7012:	74 02                	je     7016 <_init+0x16>
    7014:	ff d0                	call   *%rax
    7016:	48 83 c4 08          	add    $0x8,%rsp
    701a:	c3                   	ret    

Disassembly of section .plt:

0000000000007020 <.plt>:
    7020:	ff 35 62 7c 01 00    	push   0x17c62(%rip)        # 1ec88 <_GLOBAL_OFFSET_TABLE_+0x8>
    7026:	f2 ff 25 63 7c 01 00 	bnd jmp *0x17c63(%rip)        # 1ec90 <_GLOBAL_OFFSET_TABLE_+0x10>
    702d:	0f 1f 00             	nopl   (%rax)
    7030:	f3 0f 1e fa          	endbr64 
    7034:	68 00 00 00 00       	push   $0x0
    7039:	f2 e9 e1 ff ff ff    	bnd jmp 7020 <_init+0x20>
    703f:	90                   	nop
    7040:	f3 0f 1e fa          	endbr64 
    7044:	68 01 00 00 00       	push   $0x1
    7049:	f2 e9 d1 ff ff ff    	bnd jmp 7020 <_init+0x20>
    704f:	90                   	nop
    7050:	f3 0f 1e fa          	endbr64 
    7054:	68 02 00 00 00       	push   $0x2
    7059:	f2 e9 c1 ff ff ff    	bnd jmp 7020 <_init+0x20>
    705f:	90                   	nop
    7060:	f3 0f 1e fa          	endbr64 
    7064:	68 03 00 00 00       	push   $0x3
    7069:	f2 e9 b1 ff ff ff    	bnd jmp 7020 <_init+0x20>
    706f:	90                   	nop
    7070:	f3 0f 1e fa          	endbr64 
    7074:	68 04 00 00 00       	push   $0x4
    7079:	f2 e9 a1 ff ff ff    	bnd jmp 7020 <_init+0x20>
    707f:	90                   	nop
    7080:	f3 0f 1e fa          	endbr64 
    7084:	68 05 00 00 00       	push   $0x5
    7089:	f2 e9 91 ff ff ff    	bnd jmp 7020 <_init+0x20>
    708f:	90                   	nop
    7090:	f3 0f 1e fa          	endbr64 
    7094:	68 06 00 00 00       	push   $0x6
    7099:	f2 e9 81 ff ff ff    	bnd jmp 7020 <_init+0x20>
    709f:	90                   	nop
    70a0:	f3 0f 1e fa          	endbr64 
    70a4:	68 07 00 00 00       	push   $0x7
    70a9:	f2 e9 71 ff ff ff    	bnd jmp 7020 <_init+0x20>
    70af:	90                   	nop
    70b0:	f3 0f 1e fa          	endbr64 
    70b4:	68 08 00 00 00       	push   $0x8
    70b9:	f2 e9 61 ff ff ff    	bnd jmp 7020 <_init+0x20>
    70bf:	90                   	nop
    70c0:	f3 0f 1e fa          	endbr64 
    70c4:	68 09 00 00 00       	push   $0x9
    70c9:	f2 e9 51 ff ff ff    	bnd jmp 7020 <_init+0x20>
    70cf:	90                   	nop
    70d0:	f3 0f 1e fa          	endbr64 
    70d4:	68 0a 00 00 00       	push   $0xa
    70d9:	f2 e9 41 ff ff ff    	bnd jmp 7020 <_init+0x20>
    70df:	90                   	nop
    70e0:	f3 0f 1e fa          	endbr64 
    70e4:	68 0b 00 00 00       	push   $0xb
    70e9:	f2 e9 31 ff ff ff    	bnd jmp 7020 <_init+0x20>
    70ef:	90                   	nop
    70f0:	f3 0f 1e fa          	endbr64 
    70f4:	68 0c 00 00 00       	push   $0xc
    70f9:	f2 e9 21 ff ff ff    	bnd jmp 7020 <_init+0x20>
    70ff:	90                   	nop
    7100:	f3 0f 1e fa          	endbr64 
    7104:	68 0d 00 00 00       	push   $0xd
    7109:	f2 e9 11 ff ff ff    	bnd jmp 7020 <_init+0x20>
    710f:	90                   	nop
    7110:	f3 0f 1e fa          	endbr64 
    7114:	68 0e 00 00 00       	push   $0xe
    7119:	f2 e9 01 ff ff ff    	bnd jmp 7020 <_init+0x20>
    711f:	90                   	nop
    7120:	f3 0f 1e fa          	endbr64 
    7124:	68 0f 00 00 00       	push   $0xf
    7129:	f2 e9 f1 fe ff ff    	bnd jmp 7020 <_init+0x20>
    712f:	90                   	nop
    7130:	f3 0f 1e fa          	endbr64 
    7134:	68 10 00 00 00       	push   $0x10
    7139:	f2 e9 e1 fe ff ff    	bnd jmp 7020 <_init+0x20>
    713f:	90                   	nop
    7140:	f3 0f 1e fa          	endbr64 
    7144:	68 11 00 00 00       	push   $0x11
    7149:	f2 e9 d1 fe ff ff    	bnd jmp 7020 <_init+0x20>
    714f:	90                   	nop
    7150:	f3 0f 1e fa          	endbr64 
    7154:	68 12 00 00 00       	push   $0x12
    7159:	f2 e9 c1 fe ff ff    	bnd jmp 7020 <_init+0x20>
    715f:	90                   	nop
    7160:	f3 0f 1e fa          	endbr64 
    7164:	68 13 00 00 00       	push   $0x13
    7169:	f2 e9 b1 fe ff ff    	bnd jmp 7020 <_init+0x20>
    716f:	90                   	nop
    7170:	f3 0f 1e fa          	endbr64 
    7174:	68 14 00 00 00       	push   $0x14
    7179:	f2 e9 a1 fe ff ff    	bnd jmp 7020 <_init+0x20>
    717f:	90                   	nop
    7180:	f3 0f 1e fa          	endbr64 
    7184:	68 15 00 00 00       	push   $0x15
    7189:	f2 e9 91 fe ff ff    	bnd jmp 7020 <_init+0x20>
    718f:	90                   	nop
    7190:	f3 0f 1e fa          	endbr64 
    7194:	68 16 00 00 00       	push   $0x16
    7199:	f2 e9 81 fe ff ff    	bnd jmp 7020 <_init+0x20>
    719f:	90                   	nop
    71a0:	f3 0f 1e fa          	endbr64 
    71a4:	68 17 00 00 00       	push   $0x17
    71a9:	f2 e9 71 fe ff ff    	bnd jmp 7020 <_init+0x20>
    71af:	90                   	nop
    71b0:	f3 0f 1e fa          	endbr64 
    71b4:	68 18 00 00 00       	push   $0x18
    71b9:	f2 e9 61 fe ff ff    	bnd jmp 7020 <_init+0x20>
    71bf:	90                   	nop
    71c0:	f3 0f 1e fa          	endbr64 
    71c4:	68 19 00 00 00       	push   $0x19
    71c9:	f2 e9 51 fe ff ff    	bnd jmp 7020 <_init+0x20>
    71cf:	90                   	nop
    71d0:	f3 0f 1e fa          	endbr64 
    71d4:	68 1a 00 00 00       	push   $0x1a
    71d9:	f2 e9 41 fe ff ff    	bnd jmp 7020 <_init+0x20>
    71df:	90                   	nop
    71e0:	f3 0f 1e fa          	endbr64 
    71e4:	68 1b 00 00 00       	push   $0x1b
    71e9:	f2 e9 31 fe ff ff    	bnd jmp 7020 <_init+0x20>
    71ef:	90                   	nop
    71f0:	f3 0f 1e fa          	endbr64 
    71f4:	68 1c 00 00 00       	push   $0x1c
    71f9:	f2 e9 21 fe ff ff    	bnd jmp 7020 <_init+0x20>
    71ff:	90                   	nop
    7200:	f3 0f 1e fa          	endbr64 
    7204:	68 1d 00 00 00       	push   $0x1d
    7209:	f2 e9 11 fe ff ff    	bnd jmp 7020 <_init+0x20>
    720f:	90                   	nop
    7210:	f3 0f 1e fa          	endbr64 
    7214:	68 1e 00 00 00       	push   $0x1e
    7219:	f2 e9 01 fe ff ff    	bnd jmp 7020 <_init+0x20>
    721f:	90                   	nop
    7220:	f3 0f 1e fa          	endbr64 
    7224:	68 1f 00 00 00       	push   $0x1f
    7229:	f2 e9 f1 fd ff ff    	bnd jmp 7020 <_init+0x20>
    722f:	90                   	nop
    7230:	f3 0f 1e fa          	endbr64 
    7234:	68 20 00 00 00       	push   $0x20
    7239:	f2 e9 e1 fd ff ff    	bnd jmp 7020 <_init+0x20>
    723f:	90                   	nop
    7240:	f3 0f 1e fa          	endbr64 
    7244:	68 21 00 00 00       	push   $0x21
    7249:	f2 e9 d1 fd ff ff    	bnd jmp 7020 <_init+0x20>
    724f:	90                   	nop
    7250:	f3 0f 1e fa          	endbr64 
    7254:	68 22 00 00 00       	push   $0x22
    7259:	f2 e9 c1 fd ff ff    	bnd jmp 7020 <_init+0x20>
    725f:	90                   	nop
    7260:	f3 0f 1e fa          	endbr64 
    7264:	68 23 00 00 00       	push   $0x23
    7269:	f2 e9 b1 fd ff ff    	bnd jmp 7020 <_init+0x20>
    726f:	90                   	nop
    7270:	f3 0f 1e fa          	endbr64 
    7274:	68 24 00 00 00       	push   $0x24
    7279:	f2 e9 a1 fd ff ff    	bnd jmp 7020 <_init+0x20>
    727f:	90                   	nop
    7280:	f3 0f 1e fa          	endbr64 
    7284:	68 25 00 00 00       	push   $0x25
    7289:	f2 e9 91 fd ff ff    	bnd jmp 7020 <_init+0x20>
    728f:	90                   	nop
    7290:	f3 0f 1e fa          	endbr64 
    7294:	68 26 00 00 00       	push   $0x26
    7299:	f2 e9 81 fd ff ff    	bnd jmp 7020 <_init+0x20>
    729f:	90                   	nop
    72a0:	f3 0f 1e fa          	endbr64 
    72a4:	68 27 00 00 00       	push   $0x27
    72a9:	f2 e9 71 fd ff ff    	bnd jmp 7020 <_init+0x20>
    72af:	90                   	nop
    72b0:	f3 0f 1e fa          	endbr64 
    72b4:	68 28 00 00 00       	push   $0x28
    72b9:	f2 e9 61 fd ff ff    	bnd jmp 7020 <_init+0x20>
    72bf:	90                   	nop
    72c0:	f3 0f 1e fa          	endbr64 
    72c4:	68 29 00 00 00       	push   $0x29
    72c9:	f2 e9 51 fd ff ff    	bnd jmp 7020 <_init+0x20>
    72cf:	90                   	nop
    72d0:	f3 0f 1e fa          	endbr64 
    72d4:	68 2a 00 00 00       	push   $0x2a
    72d9:	f2 e9 41 fd ff ff    	bnd jmp 7020 <_init+0x20>
    72df:	90                   	nop
    72e0:	f3 0f 1e fa          	endbr64 
    72e4:	68 2b 00 00 00       	push   $0x2b
    72e9:	f2 e9 31 fd ff ff    	bnd jmp 7020 <_init+0x20>
    72ef:	90                   	nop
    72f0:	f3 0f 1e fa          	endbr64 
    72f4:	68 2c 00 00 00       	push   $0x2c
    72f9:	f2 e9 21 fd ff ff    	bnd jmp 7020 <_init+0x20>
    72ff:	90                   	nop
    7300:	f3 0f 1e fa          	endbr64 
    7304:	68 2d 00 00 00       	push   $0x2d
    7309:	f2 e9 11 fd ff ff    	bnd jmp 7020 <_init+0x20>
    730f:	90                   	nop
    7310:	f3 0f 1e fa          	endbr64 
    7314:	68 2e 00 00 00       	push   $0x2e
    7319:	f2 e9 01 fd ff ff    	bnd jmp 7020 <_init+0x20>
    731f:	90                   	nop
    7320:	f3 0f 1e fa          	endbr64 
    7324:	68 2f 00 00 00       	push   $0x2f
    7329:	f2 e9 f1 fc ff ff    	bnd jmp 7020 <_init+0x20>
    732f:	90                   	nop
    7330:	f3 0f 1e fa          	endbr64 
    7334:	68 30 00 00 00       	push   $0x30
    7339:	f2 e9 e1 fc ff ff    	bnd jmp 7020 <_init+0x20>
    733f:	90                   	nop
    7340:	f3 0f 1e fa          	endbr64 
    7344:	68 31 00 00 00       	push   $0x31
    7349:	f2 e9 d1 fc ff ff    	bnd jmp 7020 <_init+0x20>
    734f:	90                   	nop
    7350:	f3 0f 1e fa          	endbr64 
    7354:	68 32 00 00 00       	push   $0x32
    7359:	f2 e9 c1 fc ff ff    	bnd jmp 7020 <_init+0x20>
    735f:	90                   	nop
    7360:	f3 0f 1e fa          	endbr64 
    7364:	68 33 00 00 00       	push   $0x33
    7369:	f2 e9 b1 fc ff ff    	bnd jmp 7020 <_init+0x20>
    736f:	90                   	nop
    7370:	f3 0f 1e fa          	endbr64 
    7374:	68 34 00 00 00       	push   $0x34
    7379:	f2 e9 a1 fc ff ff    	bnd jmp 7020 <_init+0x20>
    737f:	90                   	nop
    7380:	f3 0f 1e fa          	endbr64 
    7384:	68 35 00 00 00       	push   $0x35
    7389:	f2 e9 91 fc ff ff    	bnd jmp 7020 <_init+0x20>
    738f:	90                   	nop
    7390:	f3 0f 1e fa          	endbr64 
    7394:	68 36 00 00 00       	push   $0x36
    7399:	f2 e9 81 fc ff ff    	bnd jmp 7020 <_init+0x20>
    739f:	90                   	nop
    73a0:	f3 0f 1e fa          	endbr64 
    73a4:	68 37 00 00 00       	push   $0x37
    73a9:	f2 e9 71 fc ff ff    	bnd jmp 7020 <_init+0x20>
    73af:	90                   	nop
    73b0:	f3 0f 1e fa          	endbr64 
    73b4:	68 38 00 00 00       	push   $0x38
    73b9:	f2 e9 61 fc ff ff    	bnd jmp 7020 <_init+0x20>
    73bf:	90                   	nop
    73c0:	f3 0f 1e fa          	endbr64 
    73c4:	68 39 00 00 00       	push   $0x39
    73c9:	f2 e9 51 fc ff ff    	bnd jmp 7020 <_init+0x20>
    73cf:	90                   	nop
    73d0:	f3 0f 1e fa          	endbr64 
    73d4:	68 3a 00 00 00       	push   $0x3a
    73d9:	f2 e9 41 fc ff ff    	bnd jmp 7020 <_init+0x20>
    73df:	90                   	nop
    73e0:	f3 0f 1e fa          	endbr64 
    73e4:	68 3b 00 00 00       	push   $0x3b
    73e9:	f2 e9 31 fc ff ff    	bnd jmp 7020 <_init+0x20>
    73ef:	90                   	nop
    73f0:	f3 0f 1e fa          	endbr64 
    73f4:	68 3c 00 00 00       	push   $0x3c
    73f9:	f2 e9 21 fc ff ff    	bnd jmp 7020 <_init+0x20>
    73ff:	90                   	nop
    7400:	f3 0f 1e fa          	endbr64 
    7404:	68 3d 00 00 00       	push   $0x3d
    7409:	f2 e9 11 fc ff ff    	bnd jmp 7020 <_init+0x20>
    740f:	90                   	nop
    7410:	f3 0f 1e fa          	endbr64 
    7414:	68 3e 00 00 00       	push   $0x3e
    7419:	f2 e9 01 fc ff ff    	bnd jmp 7020 <_init+0x20>
    741f:	90                   	nop
    7420:	f3 0f 1e fa          	endbr64 
    7424:	68 3f 00 00 00       	push   $0x3f
    7429:	f2 e9 f1 fb ff ff    	bnd jmp 7020 <_init+0x20>
    742f:	90                   	nop
    7430:	f3 0f 1e fa          	endbr64 
    7434:	68 40 00 00 00       	push   $0x40
    7439:	f2 e9 e1 fb ff ff    	bnd jmp 7020 <_init+0x20>
    743f:	90                   	nop
    7440:	f3 0f 1e fa          	endbr64 
    7444:	68 41 00 00 00       	push   $0x41
    7449:	f2 e9 d1 fb ff ff    	bnd jmp 7020 <_init+0x20>
    744f:	90                   	nop
    7450:	f3 0f 1e fa          	endbr64 
    7454:	68 42 00 00 00       	push   $0x42
    7459:	f2 e9 c1 fb ff ff    	bnd jmp 7020 <_init+0x20>
    745f:	90                   	nop
    7460:	f3 0f 1e fa          	endbr64 
    7464:	68 43 00 00 00       	push   $0x43
    7469:	f2 e9 b1 fb ff ff    	bnd jmp 7020 <_init+0x20>
    746f:	90                   	nop
    7470:	f3 0f 1e fa          	endbr64 
    7474:	68 44 00 00 00       	push   $0x44
    7479:	f2 e9 a1 fb ff ff    	bnd jmp 7020 <_init+0x20>
    747f:	90                   	nop
    7480:	f3 0f 1e fa          	endbr64 
    7484:	68 45 00 00 00       	push   $0x45
    7489:	f2 e9 91 fb ff ff    	bnd jmp 7020 <_init+0x20>
    748f:	90                   	nop
    7490:	f3 0f 1e fa          	endbr64 
    7494:	68 46 00 00 00       	push   $0x46
    7499:	f2 e9 81 fb ff ff    	bnd jmp 7020 <_init+0x20>
    749f:	90                   	nop
    74a0:	f3 0f 1e fa          	endbr64 
    74a4:	68 47 00 00 00       	push   $0x47
    74a9:	f2 e9 71 fb ff ff    	bnd jmp 7020 <_init+0x20>
    74af:	90                   	nop
    74b0:	f3 0f 1e fa          	endbr64 
    74b4:	68 48 00 00 00       	push   $0x48
    74b9:	f2 e9 61 fb ff ff    	bnd jmp 7020 <_init+0x20>
    74bf:	90                   	nop
    74c0:	f3 0f 1e fa          	endbr64 
    74c4:	68 49 00 00 00       	push   $0x49
    74c9:	f2 e9 51 fb ff ff    	bnd jmp 7020 <_init+0x20>
    74cf:	90                   	nop
    74d0:	f3 0f 1e fa          	endbr64 
    74d4:	68 4a 00 00 00       	push   $0x4a
    74d9:	f2 e9 41 fb ff ff    	bnd jmp 7020 <_init+0x20>
    74df:	90                   	nop
    74e0:	f3 0f 1e fa          	endbr64 
    74e4:	68 4b 00 00 00       	push   $0x4b
    74e9:	f2 e9 31 fb ff ff    	bnd jmp 7020 <_init+0x20>
    74ef:	90                   	nop
    74f0:	f3 0f 1e fa          	endbr64 
    74f4:	68 4c 00 00 00       	push   $0x4c
    74f9:	f2 e9 21 fb ff ff    	bnd jmp 7020 <_init+0x20>
    74ff:	90                   	nop
    7500:	f3 0f 1e fa          	endbr64 
    7504:	68 4d 00 00 00       	push   $0x4d
    7509:	f2 e9 11 fb ff ff    	bnd jmp 7020 <_init+0x20>
    750f:	90                   	nop
    7510:	f3 0f 1e fa          	endbr64 
    7514:	68 4e 00 00 00       	push   $0x4e
    7519:	f2 e9 01 fb ff ff    	bnd jmp 7020 <_init+0x20>
    751f:	90                   	nop
    7520:	f3 0f 1e fa          	endbr64 
    7524:	68 4f 00 00 00       	push   $0x4f
    7529:	f2 e9 f1 fa ff ff    	bnd jmp 7020 <_init+0x20>
    752f:	90                   	nop
    7530:	f3 0f 1e fa          	endbr64 
    7534:	68 50 00 00 00       	push   $0x50
    7539:	f2 e9 e1 fa ff ff    	bnd jmp 7020 <_init+0x20>
    753f:	90                   	nop
    7540:	f3 0f 1e fa          	endbr64 
    7544:	68 51 00 00 00       	push   $0x51
    7549:	f2 e9 d1 fa ff ff    	bnd jmp 7020 <_init+0x20>
    754f:	90                   	nop
    7550:	f3 0f 1e fa          	endbr64 
    7554:	68 52 00 00 00       	push   $0x52
    7559:	f2 e9 c1 fa ff ff    	bnd jmp 7020 <_init+0x20>
    755f:	90                   	nop
    7560:	f3 0f 1e fa          	endbr64 
    7564:	68 53 00 00 00       	push   $0x53
    7569:	f2 e9 b1 fa ff ff    	bnd jmp 7020 <_init+0x20>
    756f:	90                   	nop
    7570:	f3 0f 1e fa          	endbr64 
    7574:	68 54 00 00 00       	push   $0x54
    7579:	f2 e9 a1 fa ff ff    	bnd jmp 7020 <_init+0x20>
    757f:	90                   	nop
    7580:	f3 0f 1e fa          	endbr64 
    7584:	68 55 00 00 00       	push   $0x55
    7589:	f2 e9 91 fa ff ff    	bnd jmp 7020 <_init+0x20>
    758f:	90                   	nop
    7590:	f3 0f 1e fa          	endbr64 
    7594:	68 56 00 00 00       	push   $0x56
    7599:	f2 e9 81 fa ff ff    	bnd jmp 7020 <_init+0x20>
    759f:	90                   	nop
    75a0:	f3 0f 1e fa          	endbr64 
    75a4:	68 57 00 00 00       	push   $0x57
    75a9:	f2 e9 71 fa ff ff    	bnd jmp 7020 <_init+0x20>
    75af:	90                   	nop
    75b0:	f3 0f 1e fa          	endbr64 
    75b4:	68 58 00 00 00       	push   $0x58
    75b9:	f2 e9 61 fa ff ff    	bnd jmp 7020 <_init+0x20>
    75bf:	90                   	nop
    75c0:	f3 0f 1e fa          	endbr64 
    75c4:	68 59 00 00 00       	push   $0x59
    75c9:	f2 e9 51 fa ff ff    	bnd jmp 7020 <_init+0x20>
    75cf:	90                   	nop
    75d0:	f3 0f 1e fa          	endbr64 
    75d4:	68 5a 00 00 00       	push   $0x5a
    75d9:	f2 e9 41 fa ff ff    	bnd jmp 7020 <_init+0x20>
    75df:	90                   	nop
    75e0:	f3 0f 1e fa          	endbr64 
    75e4:	68 5b 00 00 00       	push   $0x5b
    75e9:	f2 e9 31 fa ff ff    	bnd jmp 7020 <_init+0x20>
    75ef:	90                   	nop
    75f0:	f3 0f 1e fa          	endbr64 
    75f4:	68 5c 00 00 00       	push   $0x5c
    75f9:	f2 e9 21 fa ff ff    	bnd jmp 7020 <_init+0x20>
    75ff:	90                   	nop
    7600:	f3 0f 1e fa          	endbr64 
    7604:	68 5d 00 00 00       	push   $0x5d
    7609:	f2 e9 11 fa ff ff    	bnd jmp 7020 <_init+0x20>
    760f:	90                   	nop
    7610:	f3 0f 1e fa          	endbr64 
    7614:	68 5e 00 00 00       	push   $0x5e
    7619:	f2 e9 01 fa ff ff    	bnd jmp 7020 <_init+0x20>
    761f:	90                   	nop
    7620:	f3 0f 1e fa          	endbr64 
    7624:	68 5f 00 00 00       	push   $0x5f
    7629:	f2 e9 f1 f9 ff ff    	bnd jmp 7020 <_init+0x20>
    762f:	90                   	nop
    7630:	f3 0f 1e fa          	endbr64 
    7634:	68 60 00 00 00       	push   $0x60
    7639:	f2 e9 e1 f9 ff ff    	bnd jmp 7020 <_init+0x20>
    763f:	90                   	nop
    7640:	f3 0f 1e fa          	endbr64 
    7644:	68 61 00 00 00       	push   $0x61
    7649:	f2 e9 d1 f9 ff ff    	bnd jmp 7020 <_init+0x20>
    764f:	90                   	nop
    7650:	f3 0f 1e fa          	endbr64 
    7654:	68 62 00 00 00       	push   $0x62
    7659:	f2 e9 c1 f9 ff ff    	bnd jmp 7020 <_init+0x20>
    765f:	90                   	nop
    7660:	f3 0f 1e fa          	endbr64 
    7664:	68 63 00 00 00       	push   $0x63
    7669:	f2 e9 b1 f9 ff ff    	bnd jmp 7020 <_init+0x20>
    766f:	90                   	nop
    7670:	f3 0f 1e fa          	endbr64 
    7674:	68 64 00 00 00       	push   $0x64
    7679:	f2 e9 a1 f9 ff ff    	bnd jmp 7020 <_init+0x20>
    767f:	90                   	nop
    7680:	f3 0f 1e fa          	endbr64 
    7684:	68 65 00 00 00       	push   $0x65
    7689:	f2 e9 91 f9 ff ff    	bnd jmp 7020 <_init+0x20>
    768f:	90                   	nop
    7690:	f3 0f 1e fa          	endbr64 
    7694:	68 66 00 00 00       	push   $0x66
    7699:	f2 e9 81 f9 ff ff    	bnd jmp 7020 <_init+0x20>
    769f:	90                   	nop

Disassembly of section .plt.got:

00000000000076a0 <__cxa_finalize@plt>:
    76a0:	f3 0f 1e fa          	endbr64 
    76a4:	f2 ff 25 3d 79 01 00 	bnd jmp *0x1793d(%rip)        # 1efe8 <__cxa_finalize@GLIBC_2.2.5>
    76ab:	0f 1f 44 00 00       	nopl   0x0(%rax,%rax,1)

Disassembly of section .plt.sec:

00000000000076b0 <tcsetattr@plt>:
    76b0:	f3 0f 1e fa          	endbr64 
    76b4:	f2 ff 25 dd 75 01 00 	bnd jmp *0x175dd(%rip)        # 1ec98 <tcsetattr@GLIBC_2.2.5>
    76bb:	0f 1f 44 00 00       	nopl   0x0(%rax,%rax,1)

00000000000076c0 <intrflush@plt>:
    76c0:	f3 0f 1e fa          	endbr64 
    76c4:	f2 ff 25 d5 75 01 00 	bnd jmp *0x175d5(%rip)        # 1eca0 <intrflush@NCURSES6_TINFO_5.0.19991023>
    76cb:	0f 1f 44 00 00       	nopl   0x0(%rax,%rax,1)

00000000000076d0 <fileno@plt>:
    76d0:	f3 0f 1e fa          	endbr64 
    76d4:	f2 ff 25 cd 75 01 00 	bnd jmp *0x175cd(%rip)        # 1eca8 <fileno@GLIBC_2.2.5>
    76db:	0f 1f 44 00 00       	nopl   0x0(%rax,%rax,1)

00000000000076e0 <mktime@plt>:
    76e0:	f3 0f 1e fa          	endbr64 
    76e4:	f2 ff 25 c5 75 01 00 	bnd jmp *0x175c5(%rip)        # 1ecb0 <mktime@GLIBC_2.2.5>
    76eb:	0f 1f 44 00 00       	nopl   0x0(%rax,%rax,1)

00000000000076f0 <ftell@plt>:
    76f0:	f3 0f 1e fa          	endbr64 
    76f4:	f2 ff 25 bd 75 01 00 	bnd jmp *0x175bd(%rip)        # 1ecb8 <ftell@GLIBC_2.2.5>
    76fb:	0f 1f 44 00 00       	nopl   0x0(%rax,%rax,1)

0000000000007700 <getgid@plt>:
    7700:	f3 0f 1e fa          	endbr64 
    7704:	f2 ff 25 b5 75 01 00 	bnd jmp *0x175b5(%rip)        # 1ecc0 <getgid@GLIBC_2.2.5>
    770b:	0f 1f 44 00 00       	nopl   0x0(%rax,%rax,1)

0000000000007710 <wclear@plt>:
    7710:	f3 0f 1e fa          	endbr64 
    7714:	f2 ff 25 ad 75 01 00 	bnd jmp *0x175ad(%rip)        # 1ecc8 <wclear@NCURSES6_5.0.19991023>
    771b:	0f 1f 44 00 00       	nopl   0x0(%rax,%rax,1)

0000000000007720 <noecho@plt>:
    7720:	f3 0f 1e fa          	endbr64 
    7724:	f2 ff 25 a5 75 01 00 	bnd jmp *0x175a5(%rip)        # 1ecd0 <noecho@NCURSES6_5.0.19991023>
    772b:	0f 1f 44 00 00       	nopl   0x0(%rax,%rax,1)

0000000000007730 <doupdate@plt>:
    7730:	f3 0f 1e fa          	endbr64 
    7734:	f2 ff 25 9d 75 01 00 	bnd jmp *0x1759d(%rip)        # 1ecd8 <doupdate@NCURSES6_5.0.19991023>
    773b:	0f 1f 44 00 00       	nopl   0x0(%rax,%rax,1)

0000000000007740 <wattrset@plt>:
    7740:	f3 0f 1e fa          	endbr64 
    7744:	f2 ff 25 95 75 01 00 	bnd jmp *0x17595(%rip)        # 1ece0 <wattrset@NCURSES6_5.0.19991023>
    774b:	0f 1f 44 00 00       	nopl   0x0(%rax,%rax,1)

0000000000007750 <abort@plt>:
    7750:	f3 0f 1e fa          	endbr64 
    7754:	f2 ff 25 8d 75 01 00 	bnd jmp *0x1758d(%rip)        # 1ece8 <abort@GLIBC_2.2.5>
    775b:	0f 1f 44 00 00       	nopl   0x0(%rax,%rax,1)

0000000000007760 <__isoc99_fscanf@plt>:
    7760:	f3 0f 1e fa          	endbr64 
    7764:	f2 ff 25 85 75 01 00 	bnd jmp *0x17585(%rip)        # 1ecf0 <__isoc99_fscanf@GLIBC_2.7>
    776b:	0f 1f 44 00 00       	nopl   0x0(%rax,%rax,1)

0000000000007770 <wattr_off@plt>:
    7770:	f3 0f 1e fa          	endbr64 
    7774:	f2 ff 25 7d 75 01 00 	bnd jmp *0x1757d(%rip)        # 1ecf8 <wattr_off@NCURSES6_5.0.19991023>
    777b:	0f 1f 44 00 00       	nopl   0x0(%rax,%rax,1)

0000000000007780 <__fprintf_chk@plt>:
    7780:	f3 0f 1e fa          	endbr64 
    7784:	f2 ff 25 75 75 01 00 	bnd jmp *0x17575(%rip)        # 1ed00 <__fprintf_chk@GLIBC_2.3.4>
    778b:	0f 1f 44 00 00       	nopl   0x0(%rax,%rax,1)

0000000000007790 <isatty@plt>:
    7790:	f3 0f 1e fa          	endbr64 
    7794:	f2 ff 25 6d 75 01 00 	bnd jmp *0x1756d(%rip)        # 1ed08 <isatty@GLIBC_2.2.5>
    779b:	0f 1f 44 00 00       	nopl   0x0(%rax,%rax,1)

00000000000077a0 <werase@plt>:
    77a0:	f3 0f 1e fa          	endbr64 
    77a4:	f2 ff 25 65 75 01 00 	bnd jmp *0x17565(%rip)        # 1ed10 <werase@NCURSES6_5.0.19991023>
    77ab:	0f 1f 44 00 00       	nopl   0x0(%rax,%rax,1)

00000000000077b0 <wgetnstr@plt>:
    77b0:	f3 0f 1e fa          	endbr64 
    77b4:	f2 ff 25 5d 75 01 00 	bnd jmp *0x1755d(%rip)        # 1ed18 <wgetnstr@NCURSES6_5.0.19991023>
    77bb:	0f 1f 44 00 00       	nopl   0x0(%rax,%rax,1)

00000000000077c0 <puts@plt>:
    77c0:	f3 0f 1e fa          	endbr64 
    77c4:	f2 ff 25 55 75 01 00 	bnd jmp *0x17555(%rip)        # 1ed20 <puts@GLIBC_2.2.5>
    77cb:	0f 1f 44 00 00       	nopl   0x0(%rax,%rax,1)

00000000000077d0 <fseek@plt>:
    77d0:	f3 0f 1e fa          	endbr64 
    77d4:	f2 ff 25 4d 75 01 00 	bnd jmp *0x1754d(%rip)        # 1ed28 <fseek@GLIBC_2.2.5>
    77db:	0f 1f 44 00 00       	nopl   0x0(%rax,%rax,1)

00000000000077e0 <__isoc99_sscanf@plt>:
    77e0:	f3 0f 1e fa          	endbr64 
    77e4:	f2 ff 25 45 75 01 00 	bnd jmp *0x17545(%rip)        # 1ed30 <__isoc99_sscanf@GLIBC_2.7>
    77eb:	0f 1f 44 00 00       	nopl   0x0(%rax,%rax,1)

00000000000077f0 <select@plt>:
    77f0:	f3 0f 1e fa          	endbr64 
    77f4:	f2 ff 25 3d 75 01 00 	bnd jmp *0x1753d(%rip)        # 1ed38 <select@GLIBC_2.2.5>
    77fb:	0f 1f 44 00 00       	nopl   0x0(%rax,%rax,1)

0000000000007800 <mvwprintw@plt>:
    7800:	f3 0f 1e fa          	endbr64 
    7804:	f2 ff 25 35 75 01 00 	bnd jmp *0x17535(%rip)        # 1ed40 <mvwprintw@NCURSES6_5.0.19991023>
    780b:	0f 1f 44 00 00       	nopl   0x0(%rax,%rax,1)

0000000000007810 <exit@plt>:
    7810:	f3 0f 1e fa          	endbr64 
    7814:	f2 ff 25 2d 75 01 00 	bnd jmp *0x1752d(%rip)        # 1ed48 <exit@GLIBC_2.2.5>
    781b:	0f 1f 44 00 00       	nopl   0x0(%rax,%rax,1)

0000000000007820 <__assert_fail@plt>:
    7820:	f3 0f 1e fa          	endbr64 
    7824:	f2 ff 25 25 75 01 00 	bnd jmp *0x17525(%rip)        # 1ed50 <__assert_fail@GLIBC_2.2.5>
    782b:	0f 1f 44 00 00       	nopl   0x0(%rax,%rax,1)

0000000000007830 <fstat@plt>:
    7830:	f3 0f 1e fa          	endbr64 
    7834:	f2 ff 25 1d 75 01 00 	bnd jmp *0x1751d(%rip)        # 1ed58 <fstat@GLIBC_2.33>
    783b:	0f 1f 44 00 00       	nopl   0x0(%rax,%rax,1)

0000000000007840 <__printf_chk@plt>:
    7840:	f3 0f 1e fa          	endbr64 
    7844:	f2 ff 25 15 75 01 00 	bnd jmp *0x17515(%rip)        # 1ed60 <__printf_chk@GLIBC_2.3.4>
    784b:	0f 1f 44 00 00       	nopl   0x0(%rax,%rax,1)

0000000000007850 <gettimeofday@plt>:
    7850:	f3 0f 1e fa          	endbr64 
    7854:	f2 ff 25 0d 75 01 00 	bnd jmp *0x1750d(%rip)        # 1ed68 <gettimeofday@GLIBC_2.2.5>
    785b:	0f 1f 44 00 00       	nopl   0x0(%rax,%rax,1)

0000000000007860 <has_key@plt>:
    7860:	f3 0f 1e fa          	endbr64 
    7864:	f2 ff 25 05 75 01 00 	bnd jmp *0x17505(%rip)        # 1ed70 <has_key@NCURSES6_TINFO_5.0.19991023>
    786b:	0f 1f 44 00 00       	nopl   0x0(%rax,%rax,1)

0000000000007870 <keypad@plt>:
    7870:	f3 0f 1e fa          	endbr64 
    7874:	f2 ff 25 fd 74 01 00 	bnd jmp *0x174fd(%rip)        # 1ed78 <keypad@NCURSES6_TINFO_5.0.19991023>
    787b:	0f 1f 44 00 00       	nopl   0x0(%rax,%rax,1)

0000000000007880 <read@plt>:
    7880:	f3 0f 1e fa          	endbr64 
    7884:	f2 ff 25 f5 74 01 00 	bnd jmp *0x174f5(%rip)        # 1ed80 <read@GLIBC_2.2.5>
    788b:	0f 1f 44 00 00       	nopl   0x0(%rax,%rax,1)

0000000000007890 <malloc@plt>:
    7890:	f3 0f 1e fa          	endbr64 
    7894:	f2 ff 25 ed 74 01 00 	bnd jmp *0x174ed(%rip)        # 1ed88 <malloc@GLIBC_2.2.5>
    789b:	0f 1f 44 00 00       	nopl   0x0(%rax,%rax,1)

00000000000078a0 <sigfillset@plt>:
    78a0:	f3 0f 1e fa          	endbr64 
    78a4:	f2 ff 25 e5 74 01 00 	bnd jmp *0x174e5(%rip)        # 1ed90 <sigfillset@GLIBC_2.2.5>
    78ab:	0f 1f 44 00 00       	nopl   0x0(%rax,%rax,1)

00000000000078b0 <beep@plt>:
    78b0:	f3 0f 1e fa          	endbr64 
    78b4:	f2 ff 25 dd 74 01 00 	bnd jmp *0x174dd(%rip)        # 1ed98 <beep@NCURSES6_5.0.19991023>
    78bb:	0f 1f 44 00 00       	nopl   0x0(%rax,%rax,1)

00000000000078c0 <curs_set@plt>:
    78c0:	f3 0f 1e fa          	endbr64 
    78c4:	f2 ff 25 d5 74 01 00 	bnd jmp *0x174d5(%rip)        # 1eda0 <curs_set@NCURSES6_TINFO_5.0.19991023>
    78cb:	0f 1f 44 00 00       	nopl   0x0(%rax,%rax,1)

00000000000078d0 <setregid@plt>:
    78d0:	f3 0f 1e fa          	endbr64 
    78d4:	f2 ff 25 cd 74 01 00 	bnd jmp *0x174cd(%rip)        # 1eda8 <setregid@GLIBC_2.2.5>
    78db:	0f 1f 44 00 00       	nopl   0x0(%rax,%rax,1)

00000000000078e0 <getpwuid@plt>:
    78e0:	f3 0f 1e fa          	endbr64 
    78e4:	f2 ff 25 c5 74 01 00 	bnd jmp *0x174c5(%rip)        # 1edb0 <getpwuid@GLIBC_2.2.5>
    78eb:	0f 1f 44 00 00       	nopl   0x0(%rax,%rax,1)

00000000000078f0 <geteuid@plt>:
    78f0:	f3 0f 1e fa          	endbr64 
    78f4:	f2 ff 25 bd 74 01 00 	bnd jmp *0x174bd(%rip)        # 1edb8 <geteuid@GLIBC_2.2.5>
    78fb:	0f 1f 44 00 00       	nopl   0x0(%rax,%rax,1)

0000000000007900 <setuid@plt>:
    7900:	f3 0f 1e fa          	endbr64 
    7904:	f2 ff 25 b5 74 01 00 	bnd jmp *0x174b5(%rip)        # 1edc0 <setuid@GLIBC_2.2.5>
    790b:	0f 1f 44 00 00       	nopl   0x0(%rax,%rax,1)

0000000000007910 <fputc@plt>:
    7910:	f3 0f 1e fa          	endbr64 
    7914:	f2 ff 25 ad 74 01 00 	bnd jmp *0x174ad(%rip)        # 1edc8 <fputc@GLIBC_2.2.5>
    791b:	0f 1f 44 00 00       	nopl   0x0(%rax,%rax,1)

0000000000007920 <free@plt>:
    7920:	f3 0f 1e fa          	endbr64 
    7924:	f2 ff 25 a5 74 01 00 	bnd jmp *0x174a5(%rip)        # 1edd0 <free@GLIBC_2.2.5>
    792b:	0f 1f 44 00 00       	nopl   0x0(%rax,%rax,1)

0000000000007930 <strlen@plt>:
    7930:	f3 0f 1e fa          	endbr64 
    7934:	f2 ff 25 9d 74 01 00 	bnd jmp *0x1749d(%rip)        # 1edd8 <strlen@GLIBC_2.2.5>
    793b:	0f 1f 44 00 00       	nopl   0x0(%rax,%rax,1)

0000000000007940 <ferror@plt>:
    7940:	f3 0f 1e fa          	endbr64 
    7944:	f2 ff 25 95 74 01 00 	bnd jmp *0x17495(%rip)        # 1ede0 <ferror@GLIBC_2.2.5>
    794b:	0f 1f 44 00 00       	nopl   0x0(%rax,%rax,1)

0000000000007950 <__vfprintf_chk@plt>:
    7950:	f3 0f 1e fa          	endbr64 
    7954:	f2 ff 25 8d 74 01 00 	bnd jmp *0x1748d(%rip)        # 1ede8 <__vfprintf_chk@GLIBC_2.3.4>
    795b:	0f 1f 44 00 00       	nopl   0x0(%rax,%rax,1)

0000000000007960 <waddch@plt>:
    7960:	f3 0f 1e fa          	endbr64 
    7964:	f2 ff 25 85 74 01 00 	bnd jmp *0x17485(%rip)        # 1edf0 <waddch@NCURSES6_5.0.19991023>
    796b:	0f 1f 44 00 00       	nopl   0x0(%rax,%rax,1)

0000000000007970 <__ctype_b_loc@plt>:
    7970:	f3 0f 1e fa          	endbr64 
    7974:	f2 ff 25 7d 74 01 00 	bnd jmp *0x1747d(%rip)        # 1edf8 <__ctype_b_loc@GLIBC_2.3>
    797b:	0f 1f 44 00 00       	nopl   0x0(%rax,%rax,1)

0000000000007980 <wrefresh@plt>:
    7980:	f3 0f 1e fa          	endbr64 
    7984:	f2 ff 25 75 74 01 00 	bnd jmp *0x17475(%rip)        # 1ee00 <wrefresh@NCURSES6_5.0.19991023>
    798b:	0f 1f 44 00 00       	nopl   0x0(%rax,%rax,1)

0000000000007990 <wnoutrefresh@plt>:
    7990:	f3 0f 1e fa          	endbr64 
    7994:	f2 ff 25 6d 74 01 00 	bnd jmp *0x1746d(%rip)        # 1ee08 <wnoutrefresh@NCURSES6_5.0.19991023>
    799b:	0f 1f 44 00 00       	nopl   0x0(%rax,%rax,1)

00000000000079a0 <fdopen@plt>:
    79a0:	f3 0f 1e fa          	endbr64 
    79a4:	f2 ff 25 65 74 01 00 	bnd jmp *0x17465(%rip)        # 1ee10 <fdopen@GLIBC_2.2.5>
    79ab:	0f 1f 44 00 00       	nopl   0x0(%rax,%rax,1)

00000000000079b0 <strrchr@plt>:
    79b0:	f3 0f 1e fa          	endbr64 
    79b4:	f2 ff 25 5d 74 01 00 	bnd jmp *0x1745d(%rip)        # 1ee18 <strrchr@GLIBC_2.2.5>
    79bb:	0f 1f 44 00 00       	nopl   0x0(%rax,%rax,1)

00000000000079c0 <sleep@plt>:
    79c0:	f3 0f 1e fa          	endbr64 
    79c4:	f2 ff 25 55 74 01 00 	bnd jmp *0x17455(%rip)        # 1ee20 <sleep@GLIBC_2.2.5>
    79cb:	0f 1f 44 00 00       	nopl   0x0(%rax,%rax,1)

00000000000079d0 <delwin@plt>:
    79d0:	f3 0f 1e fa          	endbr64 
    79d4:	f2 ff 25 4d 74 01 00 	bnd jmp *0x1744d(%rip)        # 1ee28 <delwin@NCURSES6_5.0.19991023>
    79db:	0f 1f 44 00 00       	nopl   0x0(%rax,%rax,1)

00000000000079e0 <getegid@plt>:
    79e0:	f3 0f 1e fa          	endbr64 
    79e4:	f2 ff 25 45 74 01 00 	bnd jmp *0x17445(%rip)        # 1ee30 <getegid@GLIBC_2.2.5>
    79eb:	0f 1f 44 00 00       	nopl   0x0(%rax,%rax,1)

00000000000079f0 <strerror@plt>:
    79f0:	f3 0f 1e fa          	endbr64 
    79f4:	f2 ff 25 3d 74 01 00 	bnd jmp *0x1743d(%rip)        # 1ee38 <strerror@GLIBC_2.2.5>
    79fb:	0f 1f 44 00 00       	nopl   0x0(%rax,%rax,1)

0000000000007a00 <strstr@plt>:
    7a00:	f3 0f 1e fa          	endbr64 
    7a04:	f2 ff 25 35 74 01 00 	bnd jmp *0x17435(%rip)        # 1ee40 <strstr@GLIBC_2.2.5>
    7a0b:	0f 1f 44 00 00       	nopl   0x0(%rax,%rax,1)

0000000000007a10 <sigprocmask@plt>:
    7a10:	f3 0f 1e fa          	endbr64 
    7a14:	f2 ff 25 2d 74 01 00 	bnd jmp *0x1742d(%rip)        # 1ee48 <sigprocmask@GLIBC_2.2.5>
    7a1b:	0f 1f 44 00 00       	nopl   0x0(%rax,%rax,1)

0000000000007a20 <sigaction@plt>:
    7a20:	f3 0f 1e fa          	endbr64 
    7a24:	f2 ff 25 25 74 01 00 	bnd jmp *0x17425(%rip)        # 1ee50 <sigaction@GLIBC_2.2.5>
    7a2b:	0f 1f 44 00 00       	nopl   0x0(%rax,%rax,1)

0000000000007a30 <strcat@plt>:
    7a30:	f3 0f 1e fa          	endbr64 
    7a34:	f2 ff 25 1d 74 01 00 	bnd jmp *0x1741d(%rip)        # 1ee58 <strcat@GLIBC_2.2.5>
    7a3b:	0f 1f 44 00 00       	nopl   0x0(%rax,%rax,1)

0000000000007a40 <fchmod@plt>:
    7a40:	f3 0f 1e fa          	endbr64 
    7a44:	f2 ff 25 15 74 01 00 	bnd jmp *0x17415(%rip)        # 1ee60 <fchmod@GLIBC_2.2.5>
    7a4b:	0f 1f 44 00 00       	nopl   0x0(%rax,%rax,1)

0000000000007a50 <tcgetattr@plt>:
    7a50:	f3 0f 1e fa          	endbr64 
    7a54:	f2 ff 25 0d 74 01 00 	bnd jmp *0x1740d(%rip)        # 1ee68 <tcgetattr@GLIBC_2.2.5>
    7a5b:	0f 1f 44 00 00       	nopl   0x0(%rax,%rax,1)

0000000000007a60 <__strcpy_chk@plt>:
    7a60:	f3 0f 1e fa          	endbr64 
    7a64:	f2 ff 25 05 74 01 00 	bnd jmp *0x17405(%rip)        # 1ee70 <__strcpy_chk@GLIBC_2.3.4>
    7a6b:	0f 1f 44 00 00       	nopl   0x0(%rax,%rax,1)

0000000000007a70 <raise@plt>:
    7a70:	f3 0f 1e fa          	endbr64 
    7a74:	f2 ff 25 fd 73 01 00 	bnd jmp *0x173fd(%rip)        # 1ee78 <raise@GLIBC_2.2.5>
    7a7b:	0f 1f 44 00 00       	nopl   0x0(%rax,%rax,1)

0000000000007a80 <memmove@plt>:
    7a80:	f3 0f 1e fa          	endbr64 
    7a84:	f2 ff 25 f5 73 01 00 	bnd jmp *0x173f5(%rip)        # 1ee80 <memmove@GLIBC_2.2.5>
    7a8b:	0f 1f 44 00 00       	nopl   0x0(%rax,%rax,1)

0000000000007a90 <getopt_long@plt>:
    7a90:	f3 0f 1e fa          	endbr64 
    7a94:	f2 ff 25 ed 73 01 00 	bnd jmp *0x173ed(%rip)        # 1ee88 <getopt_long@GLIBC_2.2.5>
    7a9b:	0f 1f 44 00 00       	nopl   0x0(%rax,%rax,1)

0000000000007aa0 <wmove@plt>:
    7aa0:	f3 0f 1e fa          	endbr64 
    7aa4:	f2 ff 25 e5 73 01 00 	bnd jmp *0x173e5(%rip)        # 1ee90 <wmove@NCURSES6_5.0.19991023>
    7aab:	0f 1f 44 00 00       	nopl   0x0(%rax,%rax,1)

0000000000007ab0 <__errno_location@plt>:
    7ab0:	f3 0f 1e fa          	endbr64 
    7ab4:	f2 ff 25 dd 73 01 00 	bnd jmp *0x173dd(%rip)        # 1ee98 <__errno_location@GLIBC_2.2.5>
    7abb:	0f 1f 44 00 00       	nopl   0x0(%rax,%rax,1)

0000000000007ac0 <qsort@plt>:
    7ac0:	f3 0f 1e fa          	endbr64 
    7ac4:	f2 ff 25 d5 73 01 00 	bnd jmp *0x173d5(%rip)        # 1eea0 <qsort@GLIBC_2.2.5>
    7acb:	0f 1f 44 00 00       	nopl   0x0(%rax,%rax,1)

0000000000007ad0 <wprintw@plt>:
    7ad0:	f3 0f 1e fa          	endbr64 
    7ad4:	f2 ff 25 cd 73 01 00 	bnd jmp *0x173cd(%rip)        # 1eea8 <wprintw@NCURSES6_5.0.19991023>
    7adb:	0f 1f 44 00 00       	nopl   0x0(%rax,%rax,1)

0000000000007ae0 <newwin@plt>:
    7ae0:	f3 0f 1e fa          	endbr64 
    7ae4:	f2 ff 25 c5 73 01 00 	bnd jmp *0x173c5(%rip)        # 1eeb0 <newwin@NCURSES6_5.0.19991023>
    7aeb:	0f 1f 44 00 00       	nopl   0x0(%rax,%rax,1)

0000000000007af0 <endwin@plt>:
    7af0:	f3 0f 1e fa          	endbr64 
    7af4:	f2 ff 25 bd 73 01 00 	bnd jmp *0x173bd(%rip)        # 1eeb8 <endwin@NCURSES6_5.0.19991023>
    7afb:	0f 1f 44 00 00       	nopl   0x0(%rax,%rax,1)

0000000000007b00 <__stack_chk_fail@plt>:
    7b00:	f3 0f 1e fa          	endbr64 
    7b04:	f2 ff 25 b5 73 01 00 	bnd jmp *0x173b5(%rip)        # 1eec0 <__stack_chk_fail@GLIBC_2.4>
    7b0b:	0f 1f 44 00 00       	nopl   0x0(%rax,%rax,1)

0000000000007b10 <waddnstr@plt>:
    7b10:	f3 0f 1e fa          	endbr64 
    7b14:	f2 ff 25 ad 73 01 00 	bnd jmp *0x173ad(%rip)        # 1eec8 <waddnstr@NCURSES6_5.0.19991023>
    7b1b:	0f 1f 44 00 00       	nopl   0x0(%rax,%rax,1)

0000000000007b20 <wclrtoeol@plt>:
    7b20:	f3 0f 1e fa          	endbr64 
    7b24:	f2 ff 25 a5 73 01 00 	bnd jmp *0x173a5(%rip)        # 1eed0 <wclrtoeol@NCURSES6_5.0.19991023>
    7b2b:	0f 1f 44 00 00       	nopl   0x0(%rax,%rax,1)

0000000000007b30 <strcmp@plt>:
    7b30:	f3 0f 1e fa          	endbr64 
    7b34:	f2 ff 25 9d 73 01 00 	bnd jmp *0x1739d(%rip)        # 1eed8 <strcmp@GLIBC_2.2.5>
    7b3b:	0f 1f 44 00 00       	nopl   0x0(%rax,%rax,1)

0000000000007b40 <echo@plt>:
    7b40:	f3 0f 1e fa          	endbr64 
    7b44:	f2 ff 25 95 73 01 00 	bnd jmp *0x17395(%rip)        # 1eee0 <echo@NCURSES6_5.0.19991023>
    7b4b:	0f 1f 44 00 00       	nopl   0x0(%rax,%rax,1)

0000000000007b50 <setreuid@plt>:
    7b50:	f3 0f 1e fa          	endbr64 
    7b54:	f2 ff 25 8d 73 01 00 	bnd jmp *0x1738d(%rip)        # 1eee8 <setreuid@GLIBC_2.2.5>
    7b5b:	0f 1f 44 00 00       	nopl   0x0(%rax,%rax,1)

0000000000007b60 <strcpy@plt>:
    7b60:	f3 0f 1e fa          	endbr64 
    7b64:	f2 ff 25 85 73 01 00 	bnd jmp *0x17385(%rip)        # 1eef0 <strcpy@GLIBC_2.2.5>
    7b6b:	0f 1f 44 00 00       	nopl   0x0(%rax,%rax,1)

0000000000007b70 <srand@plt>:
    7b70:	f3 0f 1e fa          	endbr64 
    7b74:	f2 ff 25 7d 73 01 00 	bnd jmp *0x1737d(%rip)        # 1eef8 <srand@GLIBC_2.2.5>
    7b7b:	0f 1f 44 00 00       	nopl   0x0(%rax,%rax,1)

0000000000007b80 <getuid@plt>:
    7b80:	f3 0f 1e fa          	endbr64 
    7b84:	f2 ff 25 75 73 01 00 	bnd jmp *0x17375(%rip)        # 1ef00 <getuid@GLIBC_2.2.5>
    7b8b:	0f 1f 44 00 00       	nopl   0x0(%rax,%rax,1)

0000000000007b90 <__ctype_tolower_loc@plt>:
    7b90:	f3 0f 1e fa          	endbr64 
    7b94:	f2 ff 25 6d 73 01 00 	bnd jmp *0x1736d(%rip)        # 1ef08 <__ctype_tolower_loc@GLIBC_2.3>
    7b9b:	0f 1f 44 00 00       	nopl   0x0(%rax,%rax,1)

0000000000007ba0 <fclose@plt>:
    7ba0:	f3 0f 1e fa          	endbr64 
    7ba4:	f2 ff 25 65 73 01 00 	bnd jmp *0x17365(%rip)        # 1ef10 <fclose@GLIBC_2.2.5>
    7bab:	0f 1f 44 00 00       	nopl   0x0(%rax,%rax,1)

0000000000007bb0 <cbreak@plt>:
    7bb0:	f3 0f 1e fa          	endbr64 
    7bb4:	f2 ff 25 5d 73 01 00 	bnd jmp *0x1735d(%rip)        # 1ef18 <cbreak@NCURSES6_TINFO_5.0.19991023>
    7bbb:	0f 1f 44 00 00       	nopl   0x0(%rax,%rax,1)

0000000000007bc0 <strncpy@plt>:
    7bc0:	f3 0f 1e fa          	endbr64 
    7bc4:	f2 ff 25 55 73 01 00 	bnd jmp *0x17355(%rip)        # 1ef20 <strncpy@GLIBC_2.2.5>
    7bcb:	0f 1f 44 00 00       	nopl   0x0(%rax,%rax,1)

0000000000007bd0 <difftime@plt>:
    7bd0:	f3 0f 1e fa          	endbr64 
    7bd4:	f2 ff 25 4d 73 01 00 	bnd jmp *0x1734d(%rip)        # 1ef28 <difftime@GLIBC_2.2.5>
    7bdb:	0f 1f 44 00 00       	nopl   0x0(%rax,%rax,1)

0000000000007be0 <initscr@plt>:
    7be0:	f3 0f 1e fa          	endbr64 
    7be4:	f2 ff 25 45 73 01 00 	bnd jmp *0x17345(%rip)        # 1ef30 <initscr@NCURSES6_5.0.19991023>
    7beb:	0f 1f 44 00 00       	nopl   0x0(%rax,%rax,1)

0000000000007bf0 <wattr_on@plt>:
    7bf0:	f3 0f 1e fa          	endbr64 
    7bf4:	f2 ff 25 3d 73 01 00 	bnd jmp *0x1733d(%rip)        # 1ef38 <wattr_on@NCURSES6_5.0.19991023>
    7bfb:	0f 1f 44 00 00       	nopl   0x0(%rax,%rax,1)

0000000000007c00 <__sprintf_chk@plt>:
    7c00:	f3 0f 1e fa          	endbr64 
    7c04:	f2 ff 25 35 73 01 00 	bnd jmp *0x17335(%rip)        # 1ef40 <__sprintf_chk@GLIBC_2.3.4>
    7c0b:	0f 1f 44 00 00       	nopl   0x0(%rax,%rax,1)

0000000000007c10 <ftruncate@plt>:
    7c10:	f3 0f 1e fa          	endbr64 
    7c14:	f2 ff 25 2d 73 01 00 	bnd jmp *0x1732d(%rip)        # 1ef48 <ftruncate@GLIBC_2.2.5>
    7c1b:	0f 1f 44 00 00       	nopl   0x0(%rax,%rax,1)

0000000000007c20 <sigemptyset@plt>:
    7c20:	f3 0f 1e fa          	endbr64 
    7c24:	f2 ff 25 25 73 01 00 	bnd jmp *0x17325(%rip)        # 1ef50 <sigemptyset@GLIBC_2.2.5>
    7c2b:	0f 1f 44 00 00       	nopl   0x0(%rax,%rax,1)

0000000000007c30 <modf@plt>:
    7c30:	f3 0f 1e fa          	endbr64 
    7c34:	f2 ff 25 1d 73 01 00 	bnd jmp *0x1731d(%rip)        # 1ef58 <modf@GLIBC_2.2.5>
    7c3b:	0f 1f 44 00 00       	nopl   0x0(%rax,%rax,1)

0000000000007c40 <fwrite@plt>:
    7c40:	f3 0f 1e fa          	endbr64 
    7c44:	f2 ff 25 15 73 01 00 	bnd jmp *0x17315(%rip)        # 1ef60 <fwrite@GLIBC_2.2.5>
    7c4b:	0f 1f 44 00 00       	nopl   0x0(%rax,%rax,1)

0000000000007c50 <realloc@plt>:
    7c50:	f3 0f 1e fa          	endbr64 
    7c54:	f2 ff 25 0d 73 01 00 	bnd jmp *0x1730d(%rip)        # 1ef68 <realloc@GLIBC_2.2.5>
    7c5b:	0f 1f 44 00 00       	nopl   0x0(%rax,%rax,1)

0000000000007c60 <setlocale@plt>:
    7c60:	f3 0f 1e fa          	endbr64 
    7c64:	f2 ff 25 05 73 01 00 	bnd jmp *0x17305(%rip)        # 1ef70 <setlocale@GLIBC_2.2.5>
    7c6b:	0f 1f 44 00 00       	nopl   0x0(%rax,%rax,1)

0000000000007c70 <leaveok@plt>:
    7c70:	f3 0f 1e fa          	endbr64 
    7c74:	f2 ff 25 fd 72 01 00 	bnd jmp *0x172fd(%rip)        # 1ef78 <leaveok@NCURSES6_5.0.19991023>
    7c7b:	0f 1f 44 00 00       	nopl   0x0(%rax,%rax,1)

0000000000007c80 <rand@plt>:
    7c80:	f3 0f 1e fa          	endbr64 
    7c84:	f2 ff 25 f5 72 01 00 	bnd jmp *0x172f5(%rip)        # 1ef80 <rand@GLIBC_2.2.5>
    7c8b:	0f 1f 44 00 00       	nopl   0x0(%rax,%rax,1)

0000000000007c90 <localtime@plt>:
    7c90:	f3 0f 1e fa          	endbr64 
    7c94:	f2 ff 25 ed 72 01 00 	bnd jmp *0x172ed(%rip)        # 1ef88 <localtime@GLIBC_2.2.5>
    7c9b:	0f 1f 44 00 00       	nopl   0x0(%rax,%rax,1)

0000000000007ca0 <setgid@plt>:
    7ca0:	f3 0f 1e fa          	endbr64 
    7ca4:	f2 ff 25 e5 72 01 00 	bnd jmp *0x172e5(%rip)        # 1ef90 <setgid@GLIBC_2.2.5>
    7cab:	0f 1f 44 00 00       	nopl   0x0(%rax,%rax,1)

0000000000007cb0 <wgetch@plt>:
    7cb0:	f3 0f 1e fa          	endbr64 
    7cb4:	f2 ff 25 dd 72 01 00 	bnd jmp *0x172dd(%rip)        # 1ef98 <wgetch@NCURSES6_5.0.19991023>
    7cbb:	0f 1f 44 00 00       	nopl   0x0(%rax,%rax,1)

0000000000007cc0 <umask@plt>:
    7cc0:	f3 0f 1e fa          	endbr64 
    7cc4:	f2 ff 25 d5 72 01 00 	bnd jmp *0x172d5(%rip)        # 1efa0 <umask@GLIBC_2.2.5>
    7ccb:	0f 1f 44 00 00       	nopl   0x0(%rax,%rax,1)

0000000000007cd0 <fcntl@plt>:
    7cd0:	f3 0f 1e fa          	endbr64 
    7cd4:	f2 ff 25 cd 72 01 00 	bnd jmp *0x172cd(%rip)        # 1efa8 <fcntl@GLIBC_2.2.5>
    7cdb:	0f 1f 44 00 00       	nopl   0x0(%rax,%rax,1)

0000000000007ce0 <open@plt>:
    7ce0:	f3 0f 1e fa          	endbr64 
    7ce4:	f2 ff 25 c5 72 01 00 	bnd jmp *0x172c5(%rip)        # 1efb0 <open@GLIBC_2.2.5>
    7ceb:	0f 1f 44 00 00       	nopl   0x0(%rax,%rax,1)

0000000000007cf0 <__strncat_chk@plt>:
    7cf0:	f3 0f 1e fa          	endbr64 
    7cf4:	f2 ff 25 bd 72 01 00 	bnd jmp *0x172bd(%rip)        # 1efb8 <__strncat_chk@GLIBC_2.3.4>
    7cfb:	0f 1f 44 00 00       	nopl   0x0(%rax,%rax,1)

0000000000007d00 <time@plt>:
    7d00:	f3 0f 1e fa          	endbr64 
    7d04:	f2 ff 25 b5 72 01 00 	bnd jmp *0x172b5(%rip)        # 1efc0 <time@GLIBC_2.2.5>
    7d0b:	0f 1f 44 00 00       	nopl   0x0(%rax,%rax,1)

0000000000007d10 <fflush@plt>:
    7d10:	f3 0f 1e fa          	endbr64 
    7d14:	f2 ff 25 ad 72 01 00 	bnd jmp *0x172ad(%rip)        # 1efc8 <fflush@GLIBC_2.2.5>
    7d1b:	0f 1f 44 00 00       	nopl   0x0(%rax,%rax,1)

Disassembly of section .text:

0000000000007d20 <set_persona.cold>:
    new_uid = user_uid;
    old_gid = game_gid;
    new_gid = user_gid;
    break;
  default:
    abort ();			/* should not happen */
    7d20:	e8 2b fa ff ff       	call   7750 <abort@plt>
    7d25:	66 2e 0f 1f 84 00 00 	cs nopw 0x0(%rax,%rax,1)
    7d2c:	00 00 00 
    7d2f:	90                   	nop

0000000000007d30 <main>:
 * main procedure
 */

int
main (int argc, char **argv)
{
    7d30:	f3 0f 1e fa          	endbr64 
    7d34:	41 57                	push   %r15
    7d36:	41 56                	push   %r14
    7d38:	41 55                	push   %r13
    7d3a:	41 54                	push   %r12
    7d3c:	55                   	push   %rbp
    7d3d:	89 fd                	mov    %edi,%ebp
    7d3f:	53                   	push   %rbx
    7d40:	48 89 f3             	mov    %rsi,%rbx
    7d43:	48 81 ec 18 01 00 00 	sub    $0x118,%rsp
#ifdef HAVE_GETOPT_LONG
  struct option  long_options [] = {
    7d4a:	64 48 8b 04 25 28 00 	mov    %fs:0x28,%rax
    7d51:	00 00 
    7d53:	48 89 84 24 08 01 00 	mov    %rax,0x108(%rsp)
    7d5a:	00 
    7d5b:	48 8d 05 a6 82 00 00 	lea    0x82a6(%rip),%rax        # 10008 <_IO_stdin_used+0x8>
    7d62:	c7 44 24 28 00 00 00 	movl   $0x0,0x28(%rsp)
    7d69:	00 
    7d6a:	48 c7 44 24 30 00 00 	movq   $0x0,0x30(%rsp)
    7d71:	00 00 
    7d73:	c7 44 24 38 63 00 00 	movl   $0x63,0x38(%rsp)
    7d7a:	00 
    7d7b:	c7 44 24 48 00 00 00 	movl   $0x0,0x48(%rsp)
    7d82:	00 
    7d83:	48 c7 44 24 50 00 00 	movq   $0x0,0x50(%rsp)
    7d8a:	00 00 
    7d8c:	c7 44 24 58 68 00 00 	movl   $0x68,0x58(%rsp)
    7d93:	00 
    7d94:	48 89 44 24 20       	mov    %rax,0x20(%rsp)
    7d99:	48 8d 05 76 82 00 00 	lea    0x8276(%rip),%rax        # 10016 <_IO_stdin_used+0x16>
    7da0:	48 89 44 24 40       	mov    %rax,0x40(%rsp)
    7da5:	48 8d 05 6f 82 00 00 	lea    0x826f(%rip),%rax        # 1001b <_IO_stdin_used+0x1b>
    7dac:	48 89 44 24 60       	mov    %rax,0x60(%rsp)
    7db1:	48 8d 05 68 82 00 00 	lea    0x8268(%rip),%rax        # 10020 <_IO_stdin_used+0x20>
    7db8:	48 89 84 24 80 00 00 	mov    %rax,0x80(%rsp)
    7dbf:	00 
    7dc0:	48 8d 05 62 82 00 00 	lea    0x8262(%rip),%rax        # 10029 <_IO_stdin_used+0x29>
    7dc7:	48 89 84 24 a0 00 00 	mov    %rax,0xa0(%rsp)
    7dce:	00 
    7dcf:	48 8d 05 5f 82 00 00 	lea    0x825f(%rip),%rax        # 10035 <_IO_stdin_used+0x35>
    7dd6:	48 89 84 24 c0 00 00 	mov    %rax,0xc0(%rsp)
    7ddd:	00 
    7dde:	c7 44 24 68 00 00 00 	movl   $0x0,0x68(%rsp)
    7de5:	00 
    7de6:	48 c7 44 24 70 00 00 	movq   $0x0,0x70(%rsp)
    7ded:	00 00 
    7def:	c7 44 24 78 6d 00 00 	movl   $0x6d,0x78(%rsp)
    7df6:	00 
    7df7:	c7 84 24 88 00 00 00 	movl   $0x0,0x88(%rsp)
    7dfe:	00 00 00 00 
    7e02:	48 c7 84 24 90 00 00 	movq   $0x0,0x90(%rsp)
    7e09:	00 00 00 00 00 
    7e0e:	c7 84 24 98 00 00 00 	movl   $0x6e,0x98(%rsp)
    7e15:	6e 00 00 00 
    7e19:	c7 84 24 a8 00 00 00 	movl   $0x0,0xa8(%rsp)
    7e20:	00 00 00 00 
    7e24:	48 c7 84 24 b0 00 00 	movq   $0x0,0xb0(%rsp)
    7e2b:	00 00 00 00 00 
    7e30:	c7 84 24 b8 00 00 00 	movl   $0x73,0xb8(%rsp)
    7e37:	73 00 00 00 
    7e3b:	c7 84 24 c8 00 00 00 	movl   $0x0,0xc8(%rsp)
    7e42:	00 00 00 00 
    7e46:	48 c7 84 24 d0 00 00 	movq   $0x0,0xd0(%rsp)
    7e4d:	00 00 00 00 00 
    7e52:	c7 84 24 d8 00 00 00 	movl   $0x56,0xd8(%rsp)
    7e59:	56 00 00 00 
    7e5d:	48 c7 84 24 e0 00 00 	movq   $0x0,0xe0(%rsp)
    7e64:	00 00 00 00 00 
    7e69:	c7 84 24 e8 00 00 00 	movl   $0x0,0xe8(%rsp)
    7e70:	00 00 00 00 
    7e74:	48 c7 84 24 f0 00 00 	movq   $0x0,0xf0(%rsp)
    7e7b:	00 00 00 00 00 
    7e80:	c7 84 24 f8 00 00 00 	movl   $0x0,0xf8(%rsp)
    7e87:	00 00 00 00 
  int  highscore_flag = 0;
  int  title_flag = 1;
  int  version_flag = 0;
  int  error_flag = 0;

  initialise_persona ();
    7e8b:	e8 80 63 00 00       	call   e210 <initialise_persona>
  set_persona (pers_USER);
    7e90:	bf 01 00 00 00       	mov    $0x1,%edi
    7e95:	e8 16 64 00 00       	call   e2b0 <set_persona>

#ifdef HAVE_SETLOCALE
  setlocale (LC_CTYPE, "");
    7e9a:	48 8d 35 de 81 00 00 	lea    0x81de(%rip),%rsi        # 1007f <_IO_stdin_used+0x7f>
    7ea1:	31 ff                	xor    %edi,%edi
    7ea3:	e8 b8 fd ff ff       	call   7c60 <setlocale@plt>
#endif

  /* `basename' seems to be non-standard.  So we avoid it.  */
  my_name = strrchr (argv[0], '/');
    7ea8:	48 8b 3b             	mov    (%rbx),%rdi
    7eab:	be 2f 00 00 00       	mov    $0x2f,%esi
    7eb0:	e8 fb fa ff ff       	call   79b0 <strrchr@plt>
    7eb5:	48 89 05 1c 74 01 00 	mov    %rax,0x1741c(%rip)        # 1f2d8 <my_name>
  my_name = xstrdup (my_name ? my_name+1 : argv[0]);
    7ebc:	48 8d 78 01          	lea    0x1(%rax),%rdi
    7ec0:	48 85 c0             	test   %rax,%rax
    7ec3:	0f 84 35 02 00 00    	je     80fe <main+0x3ce>
    7ec9:	e8 82 7b 00 00       	call   fa50 <xstrdup>
  int  version_flag = 0;
    7ece:	c7 44 24 0c 00 00 00 	movl   $0x0,0xc(%rsp)
    7ed5:	00 
    7ed6:	4c 8d 7c 24 1c       	lea    0x1c(%rsp),%r15
    7edb:	4c 8d 74 24 20       	lea    0x20(%rsp),%r14
  my_name = xstrdup (my_name ? my_name+1 : argv[0]);
    7ee0:	48 89 05 f1 73 01 00 	mov    %rax,0x173f1(%rip)        # 1f2d8 <my_name>
    7ee7:	4c 8d 2d 4f 81 00 00 	lea    0x814f(%rip),%r13        # 1003d <_IO_stdin_used+0x3d>
    c = getopt_long (argc, argv, MB_SHORT_OPTIONS, long_options, &ind);
#else
    c = getopt (argc, argv, MB_SHORT_OPTIONS);
#endif
    if (c == -1)  break;
    switch (c) {
    7eee:	4c 8d 25 27 84 00 00 	lea    0x8427(%rip),%r12        # 1031c <_IO_stdin_used+0x31c>
  int  title_flag = 1;
    7ef5:	c7 44 24 08 01 00 00 	movl   $0x1,0x8(%rsp)
    7efc:	00 
  int  highscore_flag = 0;
    7efd:	c7 04 24 00 00 00 00 	movl   $0x0,(%rsp)
  int  help_flag = 0;
    7f04:	c7 44 24 04 00 00 00 	movl   $0x0,0x4(%rsp)
    7f0b:	00 
    7f0c:	0f 1f 40 00          	nopl   0x0(%rax)
    c = getopt_long (argc, argv, MB_SHORT_OPTIONS, long_options, &ind);
    7f10:	4d 89 f8             	mov    %r15,%r8
    7f13:	4c 89 f1             	mov    %r14,%rcx
    7f16:	4c 89 ea             	mov    %r13,%rdx
    7f19:	48 89 de             	mov    %rbx,%rsi
    7f1c:	89 ef                	mov    %ebp,%edi
    7f1e:	e8 6d fb ff ff       	call   7a90 <getopt_long@plt>
    if (c == -1)  break;
    7f23:	83 f8 ff             	cmp    $0xffffffff,%eax
    7f26:	0f 84 a1 00 00 00    	je     7fcd <main+0x29d>
    switch (c) {
    7f2c:	83 e8 56             	sub    $0x56,%eax
    7f2f:	83 f8 1d             	cmp    $0x1d,%eax
    7f32:	77 0c                	ja     7f40 <main+0x210>
    7f34:	49 63 04 84          	movslq (%r12,%rax,4),%rax
    7f38:	4c 01 e0             	add    %r12,%rax
    7f3b:	3e ff e0             	notrack jmp *%rax
    7f3e:	66 90                	xchg   %ax,%ax
    7f40:	41 bc 01 00 00 00    	mov    $0x1,%r12d
    default:
      error_flag = 1;
    }
  } while (! error_flag);

  if (argc != optind) {
    7f46:	39 2d 18 73 01 00    	cmp    %ebp,0x17318(%rip)        # 1f264 <optind@GLIBC_2.2.5>
    7f4c:	0f 85 a3 00 00 00    	jne    7ff5 <main+0x2c5>
    fputs ("too many arguments\n", stderr);
    error_flag = 1;
  }

  if (version_flag) {
    7f52:	83 7c 24 0c 00       	cmpl   $0x0,0xc(%rsp)
    7f57:	0f 85 4f 02 00 00    	jne    81ac <main+0x47c>
You may redistribute copies of Moon-Buggy under the terms of the GNU\n\
General Public License.  For more information about these matters, see\n\
the file named COPYING or press `c' at Moon-Buggy's title screen.");
    if (! error_flag)  exit (0);
  }
  if (error_flag || help_flag) {
    7f5d:	8b 44 24 04          	mov    0x4(%rsp),%eax
    7f61:	44 09 e0             	or     %r12d,%eax
    7f64:	0f 85 cb 02 00 00    	jne    8235 <main+0x505>
           out);
    fputs ("Please report bugs to <voss@seehuhn.de>.\n", out);
    exit (error_flag);
  }

  init_rnd ();
    7f6a:	e8 f1 78 00 00       	call   f860 <init_rnd>

  if (highscore_flag) {
    7f6f:	8b 04 24             	mov    (%rsp),%eax
    7f72:	85 c0                	test   %eax,%eax
    7f74:	0f 84 8c 01 00 00    	je     8106 <main+0x3d6>
    if (highscore_flag == 1) {
    7f7a:	83 e8 01             	sub    $0x1,%eax
    7f7d:	74 6f                	je     7fee <main+0x2be>
      show_highscores ();
    } else {
      create_highscores ();
    7f7f:	e8 1c 52 00 00       	call   d1a0 <create_highscores>
    if (! error_flag)  exit (0);
    7f84:	31 ff                	xor    %edi,%edi
    7f86:	e8 85 f8 ff ff       	call   7810 <exit@plt>
    7f8b:	0f 1f 44 00 00       	nopl   0x0(%rax,%rax,1)
      highscore_flag = 1;
    7f90:	c7 04 24 01 00 00 00 	movl   $0x1,(%rsp)
    7f97:	e9 74 ff ff ff       	jmp    7f10 <main+0x1e0>
    7f9c:	0f 1f 40 00          	nopl   0x0(%rax)
      title_flag = 0;
    7fa0:	c7 44 24 08 00 00 00 	movl   $0x0,0x8(%rsp)
    7fa7:	00 
    7fa8:	e9 63 ff ff ff       	jmp    7f10 <main+0x1e0>
    7fad:	0f 1f 00             	nopl   (%rax)
      mesg_flag = 1;
    7fb0:	c7 05 26 73 01 00 01 	movl   $0x1,0x17326(%rip)        # 1f2e0 <mesg_flag>
    7fb7:	00 00 00 
  } while (! error_flag);
    7fba:	e9 51 ff ff ff       	jmp    7f10 <main+0x1e0>
    7fbf:	90                   	nop
      help_flag = 1;
    7fc0:	c7 44 24 04 01 00 00 	movl   $0x1,0x4(%rsp)
    7fc7:	00 
    7fc8:	e9 43 ff ff ff       	jmp    7f10 <main+0x1e0>
    if (c == -1)  break;
    7fcd:	45 31 e4             	xor    %r12d,%r12d
    7fd0:	e9 71 ff ff ff       	jmp    7f46 <main+0x216>
      version_flag = 1;
    7fd5:	c7 44 24 0c 01 00 00 	movl   $0x1,0xc(%rsp)
    7fdc:	00 
    7fdd:	e9 2e ff ff ff       	jmp    7f10 <main+0x1e0>
    switch (c) {
    7fe2:	c7 04 24 02 00 00 00 	movl   $0x2,(%rsp)
    7fe9:	e9 22 ff ff ff       	jmp    7f10 <main+0x1e0>
      show_highscores ();
    7fee:	e8 cd 51 00 00       	call   d1c0 <show_highscores>
    7ff3:	eb 8f                	jmp    7f84 <main+0x254>
    fputs ("too many arguments\n", stderr);
    7ff5:	48 8b 0d a4 72 01 00 	mov    0x172a4(%rip),%rcx        # 1f2a0 <stderr@GLIBC_2.2.5>
    7ffc:	ba 13 00 00 00       	mov    $0x13,%edx
    8001:	be 01 00 00 00       	mov    $0x1,%esi
    8006:	48 8d 3d 37 80 00 00 	lea    0x8037(%rip),%rdi        # 10044 <_IO_stdin_used+0x44>
    800d:	e8 2e fc ff ff       	call   7c40 <fwrite@plt>
  if (version_flag) {
    8012:	83 7c 24 0c 00       	cmpl   $0x0,0xc(%rsp)
    8017:	0f 85 de 01 00 00    	jne    81fb <main+0x4cb>
    FILE *out = error_flag ? stderr : stdout;
    801d:	4c 8b 2d 7c 72 01 00 	mov    0x1727c(%rip),%r13        # 1f2a0 <stderr@GLIBC_2.2.5>
    8024:	41 bc 01 00 00 00    	mov    $0x1,%r12d

# ifdef __va_arg_pack
__fortify_function int
fprintf (FILE *__restrict __stream, const char *__restrict __fmt, ...)
{
  return __fprintf_chk (__stream, __USE_FORTIFY_LEVEL - 1, __fmt,
    802a:	48 8b 0d a7 72 01 00 	mov    0x172a7(%rip),%rcx        # 1f2d8 <my_name>
    8031:	48 8d 15 32 80 00 00 	lea    0x8032(%rip),%rdx        # 1006a <_IO_stdin_used+0x6a>
    8038:	4c 89 ef             	mov    %r13,%rdi
    803b:	31 c0                	xor    %eax,%eax
    803d:	be 01 00 00 00       	mov    $0x1,%esi
    8042:	e8 39 f7 ff ff       	call   7780 <__fprintf_chk@plt>
    fputs ("The options are\n", out);
    8047:	4c 89 e9             	mov    %r13,%rcx
    804a:	ba 10 00 00 00       	mov    $0x10,%edx
    804f:	be 01 00 00 00       	mov    $0x1,%esi
    8054:	48 8d 3d 25 80 00 00 	lea    0x8025(%rip),%rdi        # 10080 <_IO_stdin_used+0x80>
    805b:	e8 e0 fb ff ff       	call   7c40 <fwrite@plt>
    fputs (OPT("-h","--help         ") "show this message and exit\n", out);
    8060:	4c 89 e9             	mov    %r13,%rcx
    8063:	ba 34 00 00 00       	mov    $0x34,%edx
    8068:	be 01 00 00 00       	mov    $0x1,%esi
    806d:	48 8d 3d 64 81 00 00 	lea    0x8164(%rip),%rdi        # 101d8 <_IO_stdin_used+0x1d8>
    8074:	e8 c7 fb ff ff       	call   7c40 <fwrite@plt>
    fputs (OPT("-m","--mesg         ") "imply the effect of \"mesg n\"\n",
    8079:	4c 89 e9             	mov    %r13,%rcx
    807c:	ba 36 00 00 00       	mov    $0x36,%edx
    8081:	be 01 00 00 00       	mov    $0x1,%esi
    8086:	48 8d 3d 83 81 00 00 	lea    0x8183(%rip),%rdi        # 10210 <_IO_stdin_used+0x210>
    808d:	e8 ae fb ff ff       	call   7c40 <fwrite@plt>
    fputs (OPT("-n","--no-title     ") "omit the title screen\n", out);
    8092:	4c 89 e9             	mov    %r13,%rcx
    8095:	ba 2f 00 00 00       	mov    $0x2f,%edx
    809a:	be 01 00 00 00       	mov    $0x1,%esi
    809f:	48 8d 3d a2 81 00 00 	lea    0x81a2(%rip),%rdi        # 10248 <_IO_stdin_used+0x248>
    80a6:	e8 95 fb ff ff       	call   7c40 <fwrite@plt>
    fputs (OPT("-s","--show-scores  ") "only show the highscore list\n", out);
    80ab:	4c 89 e9             	mov    %r13,%rcx
    80ae:	ba 36 00 00 00       	mov    $0x36,%edx
    80b3:	be 01 00 00 00       	mov    $0x1,%esi
    80b8:	48 8d 3d b9 81 00 00 	lea    0x81b9(%rip),%rdi        # 10278 <_IO_stdin_used+0x278>
    80bf:	e8 7c fb ff ff       	call   7c40 <fwrite@plt>
    fputs (OPT("-V","--version      ") "show the version number and exit\n\n",
    80c4:	4c 89 e9             	mov    %r13,%rcx
    80c7:	ba 3b 00 00 00       	mov    $0x3b,%edx
    80cc:	be 01 00 00 00       	mov    $0x1,%esi
    80d1:	48 8d 3d d8 81 00 00 	lea    0x81d8(%rip),%rdi        # 102b0 <_IO_stdin_used+0x2b0>
    80d8:	e8 63 fb ff ff       	call   7c40 <fwrite@plt>
    fputs ("Please report bugs to <voss@seehuhn.de>.\n", out);
    80dd:	48 8d 3d 0c 82 00 00 	lea    0x820c(%rip),%rdi        # 102f0 <_IO_stdin_used+0x2f0>
    80e4:	4c 89 e9             	mov    %r13,%rcx
    80e7:	ba 29 00 00 00       	mov    $0x29,%edx
    80ec:	be 01 00 00 00       	mov    $0x1,%esi
    80f1:	e8 4a fb ff ff       	call   7c40 <fwrite@plt>
    exit (error_flag);
    80f6:	44 89 e7             	mov    %r12d,%edi
    80f9:	e8 12 f7 ff ff       	call   7810 <exit@plt>
  my_name = xstrdup (my_name ? my_name+1 : argv[0]);
    80fe:	48 8b 3b             	mov    (%rbx),%rdi
    8101:	e9 c3 fd ff ff       	jmp    7ec9 <main+0x199>
    }
    exit (0);
  }

  initialise_signals ();
    8106:	e8 65 66 00 00       	call   e770 <initialise_signals>

  allocate_windows ();
    810b:	e8 20 04 00 00       	call   8530 <allocate_windows>
  curses_initialised = 1;
    8110:	c7 05 ca 71 01 00 01 	movl   $0x1,0x171ca(%rip)        # 1f2e4 <curses_initialised>
    8117:	00 00 00 
  prepare_screen ();
    811a:	e8 c1 03 00 00       	call   84e0 <prepare_screen>

  install_keys ();
    811f:	e8 ac 68 00 00       	call   e9d0 <install_keys>
  setup_title_mode ();
    8124:	e8 57 0a 00 00       	call   8b80 <setup_title_mode>
  setup_pager_mode ();
    8129:	e8 52 0e 00 00       	call   8f80 <setup_pager_mode>
  setup_game_mode ();
    812e:	e8 8d 15 00 00       	call   96c0 <setup_game_mode>
  setup_highscore_mode ();
    8133:	e8 28 52 00 00       	call   d360 <setup_highscore_mode>

  clear_windows ();
    8138:	e8 b3 04 00 00       	call   85f0 <clear_windows>

  resize_ground (1);
    813d:	bf 01 00 00 00       	mov    $0x1,%edi
    8142:	e8 d9 24 00 00       	call   a620 <resize_ground>
  initialise_buggy ();
    8147:	e8 74 29 00 00       	call   aac0 <initialise_buggy>

  if (title_flag) {
    mode_change (title_mode, 0);
    814c:	31 f6                	xor    %esi,%esi
  if (title_flag) {
    814e:	83 7c 24 08 00       	cmpl   $0x0,0x8(%rsp)
    8153:	0f 85 91 00 00 00    	jne    81ea <main+0x4ba>
  } else {
    mode_change (game_mode, 0);
    8159:	48 8b 3d c0 71 01 00 	mov    0x171c0(%rip),%rdi        # 1f320 <game_mode>
    8160:	e8 3b 06 00 00       	call   87a0 <mode_change>
  }
  main_loop ();
    8165:	e8 56 5a 00 00       	call   dbc0 <main_loop>
  mode_change (NULL, 0);
    816a:	31 f6                	xor    %esi,%esi
    816c:	31 ff                	xor    %edi,%edi
    816e:	e8 2d 06 00 00       	call   87a0 <mode_change>
  if (! curses_initialised)  return;
    8173:	83 3d 6a 71 01 00 00 	cmpl   $0x0,0x1716a(%rip)        # 1f2e4 <curses_initialised>
    817a:	74 05                	je     8181 <main+0x451>
    817c:	e8 bf 01 00 00       	call   8340 <prepare_for_exit.part.0>

  prepare_for_exit ();
  return  0;
}
    8181:	48 8b 84 24 08 01 00 	mov    0x108(%rsp),%rax
    8188:	00 
    8189:	64 48 2b 04 25 28 00 	sub    %fs:0x28,%rax
    8190:	00 00 
    8192:	0f 85 98 00 00 00    	jne    8230 <main+0x500>
    8198:	48 81 c4 18 01 00 00 	add    $0x118,%rsp
    819f:	31 c0                	xor    %eax,%eax
    81a1:	5b                   	pop    %rbx
    81a2:	5d                   	pop    %rbp
    81a3:	41 5c                	pop    %r12
    81a5:	41 5d                	pop    %r13
    81a7:	41 5e                	pop    %r14
    81a9:	41 5f                	pop    %r15
    81ab:	c3                   	ret    
    puts ("Moon-Buggy " VERSION);
    81ac:	48 8d 3d a5 7e 00 00 	lea    0x7ea5(%rip),%rdi        # 10058 <_IO_stdin_used+0x58>
    81b3:	e8 08 f6 ff ff       	call   77c0 <puts@plt>
    puts ("Copyright 1998-2006  Jochen Voss");
    81b8:	48 8d 3d d9 7e 00 00 	lea    0x7ed9(%rip),%rdi        # 10098 <_IO_stdin_used+0x98>
    81bf:	e8 fc f5 ff ff       	call   77c0 <puts@plt>
    puts ("\
    81c4:	48 8d 3d f5 7e 00 00 	lea    0x7ef5(%rip),%rdi        # 100c0 <_IO_stdin_used+0xc0>
    81cb:	e8 f0 f5 ff ff       	call   77c0 <puts@plt>
    puts ("\
    81d0:	48 8d 3d 31 7f 00 00 	lea    0x7f31(%rip),%rdi        # 10108 <_IO_stdin_used+0x108>
    81d7:	e8 e4 f5 ff ff       	call   77c0 <puts@plt>
    if (! error_flag)  exit (0);
    81dc:	45 85 e4             	test   %r12d,%r12d
    81df:	0f 84 9f fd ff ff    	je     7f84 <main+0x254>
    81e5:	e9 33 fe ff ff       	jmp    801d <main+0x2ed>
    mode_change (title_mode, 0);
    81ea:	48 8b 3d 07 71 01 00 	mov    0x17107(%rip),%rdi        # 1f2f8 <title_mode>
    81f1:	e8 aa 05 00 00       	call   87a0 <mode_change>
    81f6:	e9 6a ff ff ff       	jmp    8165 <main+0x435>
    puts ("Moon-Buggy " VERSION);
    81fb:	48 8d 3d 56 7e 00 00 	lea    0x7e56(%rip),%rdi        # 10058 <_IO_stdin_used+0x58>
    8202:	e8 b9 f5 ff ff       	call   77c0 <puts@plt>
    puts ("Copyright 1998-2006  Jochen Voss");
    8207:	48 8d 3d 8a 7e 00 00 	lea    0x7e8a(%rip),%rdi        # 10098 <_IO_stdin_used+0x98>
    820e:	e8 ad f5 ff ff       	call   77c0 <puts@plt>
    puts ("\
    8213:	48 8d 3d a6 7e 00 00 	lea    0x7ea6(%rip),%rdi        # 100c0 <_IO_stdin_used+0xc0>
    821a:	e8 a1 f5 ff ff       	call   77c0 <puts@plt>
    puts ("\
    821f:	48 8d 3d e2 7e 00 00 	lea    0x7ee2(%rip),%rdi        # 10108 <_IO_stdin_used+0x108>
    8226:	e8 95 f5 ff ff       	call   77c0 <puts@plt>
    if (! error_flag)  exit (0);
    822b:	e9 ed fd ff ff       	jmp    801d <main+0x2ed>
}
    8230:	e8 cb f8 ff ff       	call   7b00 <__stack_chk_fail@plt>
    FILE *out = error_flag ? stderr : stdout;
    8235:	4c 8b 2d 6c 70 01 00 	mov    0x1706c(%rip),%r13        # 1f2a8 <stdout@GLIBC_2.2.5>
    823c:	45 85 e4             	test   %r12d,%r12d
    823f:	0f 84 e5 fd ff ff    	je     802a <main+0x2fa>
    8245:	e9 d3 fd ff ff       	jmp    801d <main+0x2ed>
    824a:	66 0f 1f 44 00 00    	nopw   0x0(%rax,%rax,1)

0000000000008250 <_start>:
    8250:	f3 0f 1e fa          	endbr64 
    8254:	31 ed                	xor    %ebp,%ebp
    8256:	49 89 d1             	mov    %rdx,%r9
    8259:	5e                   	pop    %rsi
    825a:	48 89 e2             	mov    %rsp,%rdx
    825d:	48 83 e4 f0          	and    $0xfffffffffffffff0,%rsp
    8261:	50                   	push   %rax
    8262:	54                   	push   %rsp
    8263:	45 31 c0             	xor    %r8d,%r8d
    8266:	31 c9                	xor    %ecx,%ecx
    8268:	48 8d 3d c1 fa ff ff 	lea    -0x53f(%rip),%rdi        # 7d30 <main>
    826f:	ff 15 7b 6d 01 00    	call   *0x16d7b(%rip)        # 1eff0 <__libc_start_main@GLIBC_2.34>
    8275:	f4                   	hlt    
    8276:	66 2e 0f 1f 84 00 00 	cs nopw 0x0(%rax,%rax,1)
    827d:	00 00 00 

0000000000008280 <deregister_tm_clones>:
    8280:	48 8d 3d c1 6f 01 00 	lea    0x16fc1(%rip),%rdi        # 1f248 <__TMC_END__>
    8287:	48 8d 05 ba 6f 01 00 	lea    0x16fba(%rip),%rax        # 1f248 <__TMC_END__>
    828e:	48 39 f8             	cmp    %rdi,%rax
    8291:	74 15                	je     82a8 <deregister_tm_clones+0x28>
    8293:	48 8b 05 3e 6d 01 00 	mov    0x16d3e(%rip),%rax        # 1efd8 <_ITM_deregisterTMCloneTable@Base>
    829a:	48 85 c0             	test   %rax,%rax
    829d:	74 09                	je     82a8 <deregister_tm_clones+0x28>
    829f:	ff e0                	jmp    *%rax
    82a1:	0f 1f 80 00 00 00 00 	nopl   0x0(%rax)
    82a8:	c3                   	ret    
    82a9:	0f 1f 80 00 00 00 00 	nopl   0x0(%rax)

00000000000082b0 <register_tm_clones>:
    82b0:	48 8d 3d 91 6f 01 00 	lea    0x16f91(%rip),%rdi        # 1f248 <__TMC_END__>
    82b7:	48 8d 35 8a 6f 01 00 	lea    0x16f8a(%rip),%rsi        # 1f248 <__TMC_END__>
    82be:	48 29 fe             	sub    %rdi,%rsi
    82c1:	48 89 f0             	mov    %rsi,%rax
    82c4:	48 c1 ee 3f          	shr    $0x3f,%rsi
    82c8:	48 c1 f8 03          	sar    $0x3,%rax
    82cc:	48 01 c6             	add    %rax,%rsi
    82cf:	48 d1 fe             	sar    %rsi
    82d2:	74 14                	je     82e8 <register_tm_clones+0x38>
    82d4:	48 8b 05 05 6d 01 00 	mov    0x16d05(%rip),%rax        # 1efe0 <_ITM_registerTMCloneTable@Base>
    82db:	48 85 c0             	test   %rax,%rax
    82de:	74 08                	je     82e8 <register_tm_clones+0x38>
    82e0:	ff e0                	jmp    *%rax
    82e2:	66 0f 1f 44 00 00    	nopw   0x0(%rax,%rax,1)
    82e8:	c3                   	ret    
    82e9:	0f 1f 80 00 00 00 00 	nopl   0x0(%rax)

00000000000082f0 <__do_global_dtors_aux>:
    82f0:	f3 0f 1e fa          	endbr64 
    82f4:	80 3d b5 6f 01 00 00 	cmpb   $0x0,0x16fb5(%rip)        # 1f2b0 <completed.0>
    82fb:	75 2b                	jne    8328 <__do_global_dtors_aux+0x38>
    82fd:	55                   	push   %rbp
    82fe:	48 83 3d e2 6c 01 00 	cmpq   $0x0,0x16ce2(%rip)        # 1efe8 <__cxa_finalize@GLIBC_2.2.5>
    8305:	00 
    8306:	48 89 e5             	mov    %rsp,%rbp
    8309:	74 0c                	je     8317 <__do_global_dtors_aux+0x27>
    830b:	48 8b 3d f6 6c 01 00 	mov    0x16cf6(%rip),%rdi        # 1f008 <__dso_handle>
    8312:	e8 89 f3 ff ff       	call   76a0 <__cxa_finalize@plt>
    8317:	e8 64 ff ff ff       	call   8280 <deregister_tm_clones>
    831c:	c6 05 8d 6f 01 00 01 	movb   $0x1,0x16f8d(%rip)        # 1f2b0 <completed.0>
    8323:	5d                   	pop    %rbp
    8324:	c3                   	ret    
    8325:	0f 1f 00             	nopl   (%rax)
    8328:	c3                   	ret    
    8329:	0f 1f 80 00 00 00 00 	nopl   0x0(%rax)

0000000000008330 <frame_dummy>:
    8330:	f3 0f 1e fa          	endbr64 
    8334:	e9 77 ff ff ff       	jmp    82b0 <register_tm_clones>
    8339:	0f 1f 80 00 00 00 00 	nopl   0x0(%rax)

0000000000008340 <prepare_for_exit.part.0>:
prepare_for_exit (void)
    8340:	48 83 ec 08          	sub    $0x8,%rsp
  term_restore ();
    8344:	e8 97 73 00 00       	call   f6e0 <term_restore>
  show_cursor ();
    8349:	e8 d2 74 00 00       	call   f820 <show_cursor>
  wrefresh (moon);
    834e:	48 8b 3d 7b 6f 01 00 	mov    0x16f7b(%rip),%rdi        # 1f2d0 <moon>
    8355:	e8 26 f6 ff ff       	call   7980 <wrefresh@plt>
  wrefresh (message);
    835a:	48 8b 3d 5f 6f 01 00 	mov    0x16f5f(%rip),%rdi        # 1f2c0 <message>
    8361:	e8 1a f6 ff ff       	call   7980 <wrefresh@plt>
  werase (status);
    8366:	48 8b 3d 5b 6f 01 00 	mov    0x16f5b(%rip),%rdi        # 1f2c8 <status>
    836d:	e8 2e f4 ff ff       	call   77a0 <werase@plt>
  wmove (status, 0, 0);
    8372:	48 8b 3d 4f 6f 01 00 	mov    0x16f4f(%rip),%rdi        # 1f2c8 <status>
    8379:	31 d2                	xor    %edx,%edx
    837b:	31 f6                	xor    %esi,%esi
    837d:	e8 1e f7 ff ff       	call   7aa0 <wmove@plt>
  wrefresh (status);
    8382:	48 8b 3d 3f 6f 01 00 	mov    0x16f3f(%rip),%rdi        # 1f2c8 <status>
    8389:	e8 f2 f5 ff ff       	call   7980 <wrefresh@plt>
  endwin ();
    838e:	e8 5d f7 ff ff       	call   7af0 <endwin@plt>
  fflush (NULL);
    8393:	31 ff                	xor    %edi,%edi
}
    8395:	48 83 c4 08          	add    $0x8,%rsp
  fflush (NULL);
    8399:	e9 72 f9 ff ff       	jmp    7d10 <fflush@plt>
    839e:	66 90                	xchg   %ax,%ax

00000000000083a0 <print_message>:
{
    83a0:	f3 0f 1e fa          	endbr64 
  if (curses_initialised) {
    83a4:	8b 05 3a 6f 01 00    	mov    0x16f3a(%rip),%eax        # 1f2e4 <curses_initialised>
{
    83aa:	41 54                	push   %r12
    83ac:	49 89 fc             	mov    %rdi,%r12
  if (curses_initialised) {
    83af:	85 c0                	test   %eax,%eax
    83b1:	74 35                	je     83e8 <print_message+0x48>
    werase (message);
    83b3:	48 8b 3d 06 6f 01 00 	mov    0x16f06(%rip),%rdi        # 1f2c0 <message>
    83ba:	e8 e1 f3 ff ff       	call   77a0 <werase@plt>
    waddstr (message, str);
    83bf:	48 8b 3d fa 6e 01 00 	mov    0x16efa(%rip),%rdi        # 1f2c0 <message>
    83c6:	4c 89 e6             	mov    %r12,%rsi
    83c9:	ba ff ff ff ff       	mov    $0xffffffff,%edx
    83ce:	e8 3d f7 ff ff       	call   7b10 <waddnstr@plt>
    wnoutrefresh (message);
    83d3:	48 8b 3d e6 6e 01 00 	mov    0x16ee6(%rip),%rdi        # 1f2c0 <message>
}
    83da:	41 5c                	pop    %r12
    wnoutrefresh (message);
    83dc:	e9 af f5 ff ff       	jmp    7990 <wnoutrefresh@plt>
    83e1:	0f 1f 80 00 00 00 00 	nopl   0x0(%rax)
    83e8:	48 89 f9             	mov    %rdi,%rcx
    83eb:	48 8b 3d ae 6e 01 00 	mov    0x16eae(%rip),%rdi        # 1f2a0 <stderr@GLIBC_2.2.5>
    83f2:	31 c0                	xor    %eax,%eax
}
    83f4:	41 5c                	pop    %r12
    83f6:	48 8d 15 07 7c 00 00 	lea    0x7c07(%rip),%rdx        # 10004 <_IO_stdin_used+0x4>
    83fd:	be 01 00 00 00       	mov    $0x1,%esi
    8402:	e9 79 f3 ff ff       	jmp    7780 <__fprintf_chk@plt>
    8407:	66 0f 1f 84 00 00 00 	nopw   0x0(%rax,%rax,1)
    840e:	00 00 

0000000000008410 <print_hint>:
{
    8410:	f3 0f 1e fa          	endbr64 
  if (curses_initialised) {
    8414:	8b 05 ca 6e 01 00    	mov    0x16eca(%rip),%eax        # 1f2e4 <curses_initialised>
    841a:	85 c0                	test   %eax,%eax
    841c:	0f 84 ae 00 00 00    	je     84d0 <print_hint+0xc0>
{
    8422:	41 54                	push   %r12
    8424:	55                   	push   %rbp
    8425:	48 89 fd             	mov    %rdi,%rbp
    8428:	48 83 ec 08          	sub    $0x8,%rsp
    int  len = strlen (str);
    842c:	e8 ff f4 ff ff       	call   7930 <strlen@plt>
    int  cols = COLS;
    8431:	8b 3d 31 6e 01 00    	mov    0x16e31(%rip),%edi        # 1f268 <COLS@NCURSES6_TINFO_5.0.19991023>
    if (car_base+3+len/2 >= cols) {
    8437:	8b 15 7b 6e 01 00    	mov    0x16e7b(%rip),%edx        # 1f2b8 <car_base>
    843d:	89 c1                	mov    %eax,%ecx
    843f:	c1 e9 1f             	shr    $0x1f,%ecx
    8442:	83 c2 03             	add    $0x3,%edx
      pos = cols - len - 1;
    8445:	89 fe                	mov    %edi,%esi
    if (car_base+3+len/2 >= cols) {
    8447:	01 c1                	add    %eax,%ecx
      pos = cols - len - 1;
    8449:	29 c6                	sub    %eax,%esi
    if (car_base+3+len/2 >= cols) {
    844b:	d1 f9                	sar    %ecx
      pos = cols - len - 1;
    844d:	8d 46 ff             	lea    -0x1(%rsi),%eax
    if (car_base+3+len/2 >= cols) {
    8450:	44 8d 04 0a          	lea    (%rdx,%rcx,1),%r8d
      pos = cols - len - 1;
    8454:	29 ca                	sub    %ecx,%edx
    8456:	41 39 f8             	cmp    %edi,%r8d
    wmove (moon, LINES-11, 0);
    8459:	48 8b 3d 70 6e 01 00 	mov    0x16e70(%rip),%rdi        # 1f2d0 <moon>
      pos = cols - len - 1;
    8460:	0f 4c c2             	cmovl  %edx,%eax
    wmove (moon, LINES-11, 0);
    8463:	31 d2                	xor    %edx,%edx
      pos = cols - len - 1;
    8465:	41 89 c4             	mov    %eax,%r12d
    wmove (moon, LINES-11, 0);
    8468:	8b 05 f2 6d 01 00    	mov    0x16df2(%rip),%eax        # 1f260 <LINES@NCURSES6_TINFO_5.0.19991023>
    846e:	8d 70 f5             	lea    -0xb(%rax),%esi
    8471:	e8 2a f6 ff ff       	call   7aa0 <wmove@plt>
    wclrtoeol (moon);
    8476:	48 8b 3d 53 6e 01 00 	mov    0x16e53(%rip),%rdi        # 1f2d0 <moon>
    847d:	e8 9e f6 ff ff       	call   7b20 <wclrtoeol@plt>
    mvwaddstr (moon, LINES-11, pos, str);
    8482:	8b 05 d8 6d 01 00    	mov    0x16dd8(%rip),%eax        # 1f260 <LINES@NCURSES6_TINFO_5.0.19991023>
    8488:	48 8b 3d 41 6e 01 00 	mov    0x16e41(%rip),%rdi        # 1f2d0 <moon>
    848f:	44 89 e2             	mov    %r12d,%edx
    8492:	8d 70 f5             	lea    -0xb(%rax),%esi
    8495:	e8 06 f6 ff ff       	call   7aa0 <wmove@plt>
    849a:	83 f8 ff             	cmp    $0xffffffff,%eax
    849d:	75 19                	jne    84b8 <print_hint+0xa8>
    wnoutrefresh (moon);
    849f:	48 8b 3d 2a 6e 01 00 	mov    0x16e2a(%rip),%rdi        # 1f2d0 <moon>
}
    84a6:	48 83 c4 08          	add    $0x8,%rsp
    84aa:	5d                   	pop    %rbp
    84ab:	41 5c                	pop    %r12
    wnoutrefresh (moon);
    84ad:	e9 de f4 ff ff       	jmp    7990 <wnoutrefresh@plt>
    84b2:	66 0f 1f 44 00 00    	nopw   0x0(%rax,%rax,1)
    mvwaddstr (moon, LINES-11, pos, str);
    84b8:	48 8b 3d 11 6e 01 00 	mov    0x16e11(%rip),%rdi        # 1f2d0 <moon>
    84bf:	ba ff ff ff ff       	mov    $0xffffffff,%edx
    84c4:	48 89 ee             	mov    %rbp,%rsi
    84c7:	e8 44 f6 ff ff       	call   7b10 <waddnstr@plt>
    84cc:	eb d1                	jmp    849f <print_hint+0x8f>
    84ce:	66 90                	xchg   %ax,%ax
    84d0:	c3                   	ret    
    84d1:	66 66 2e 0f 1f 84 00 	data16 cs nopw 0x0(%rax,%rax,1)
    84d8:	00 00 00 00 
    84dc:	0f 1f 40 00          	nopl   0x0(%rax)

00000000000084e0 <prepare_screen>:
{
    84e0:	f3 0f 1e fa          	endbr64 
    84e4:	48 83 ec 08          	sub    $0x8,%rsp
  cbreak ();
    84e8:	e8 c3 f6 ff ff       	call   7bb0 <cbreak@plt>
  noecho ();
    84ed:	e8 2e f2 ff ff       	call   7720 <noecho@plt>
  hide_cursor ();
    84f2:	e8 d9 72 00 00       	call   f7d0 <hide_cursor>
  term_prepare (mesg_flag);
    84f7:	8b 3d e3 6d 01 00    	mov    0x16de3(%rip),%edi        # 1f2e0 <mesg_flag>
}
    84fd:	48 83 c4 08          	add    $0x8,%rsp
  term_prepare (mesg_flag);
    8501:	e9 7a 70 00 00       	jmp    f580 <term_prepare>
    8506:	66 2e 0f 1f 84 00 00 	cs nopw 0x0(%rax,%rax,1)
    850d:	00 00 00 

0000000000008510 <prepare_for_exit>:
{
    8510:	f3 0f 1e fa          	endbr64 
  if (! curses_initialised)  return;
    8514:	8b 05 ca 6d 01 00    	mov    0x16dca(%rip),%eax        # 1f2e4 <curses_initialised>
    851a:	85 c0                	test   %eax,%eax
    851c:	75 02                	jne    8520 <prepare_for_exit+0x10>
}
    851e:	c3                   	ret    
    851f:	90                   	nop
    8520:	e9 1b fe ff ff       	jmp    8340 <prepare_for_exit.part.0>
    8525:	66 66 2e 0f 1f 84 00 	data16 cs nopw 0x0(%rax,%rax,1)
    852c:	00 00 00 00 

0000000000008530 <allocate_windows>:
{
    8530:	f3 0f 1e fa          	endbr64 
    8534:	48 83 ec 08          	sub    $0x8,%rsp
  initscr ();
    8538:	e8 a3 f6 ff ff       	call   7be0 <initscr@plt>
  moon = newwin (LINES-2, 0, 0, 0);
    853d:	8b 05 1d 6d 01 00    	mov    0x16d1d(%rip),%eax        # 1f260 <LINES@NCURSES6_TINFO_5.0.19991023>
    8543:	31 c9                	xor    %ecx,%ecx
    8545:	31 d2                	xor    %edx,%edx
    8547:	31 f6                	xor    %esi,%esi
    8549:	8d 78 fe             	lea    -0x2(%rax),%edi
    854c:	e8 8f f5 ff ff       	call   7ae0 <newwin@plt>
  keypad (moon, TRUE);
    8551:	be 01 00 00 00       	mov    $0x1,%esi
  moon = newwin (LINES-2, 0, 0, 0);
    8556:	48 89 c7             	mov    %rax,%rdi
    8559:	48 89 05 70 6d 01 00 	mov    %rax,0x16d70(%rip)        # 1f2d0 <moon>
  keypad (moon, TRUE);
    8560:	e8 0b f3 ff ff       	call   7870 <keypad@plt>
  intrflush (moon, FALSE);
    8565:	48 8b 3d 64 6d 01 00 	mov    0x16d64(%rip),%rdi        # 1f2d0 <moon>
    856c:	31 f6                	xor    %esi,%esi
    856e:	e8 4d f1 ff ff       	call   76c0 <intrflush@plt>
  status = newwin (1, 0, LINES-1, 0);
    8573:	8b 05 e7 6c 01 00    	mov    0x16ce7(%rip),%eax        # 1f260 <LINES@NCURSES6_TINFO_5.0.19991023>
    8579:	31 c9                	xor    %ecx,%ecx
    857b:	31 f6                	xor    %esi,%esi
    857d:	bf 01 00 00 00       	mov    $0x1,%edi
    8582:	8d 50 ff             	lea    -0x1(%rax),%edx
    8585:	e8 56 f5 ff ff       	call   7ae0 <newwin@plt>
  keypad (status, TRUE);
    858a:	be 01 00 00 00       	mov    $0x1,%esi
  status = newwin (1, 0, LINES-1, 0);
    858f:	48 89 c7             	mov    %rax,%rdi
    8592:	48 89 05 2f 6d 01 00 	mov    %rax,0x16d2f(%rip)        # 1f2c8 <status>
  keypad (status, TRUE);
    8599:	e8 d2 f2 ff ff       	call   7870 <keypad@plt>
  intrflush (status, FALSE);
    859e:	48 8b 3d 23 6d 01 00 	mov    0x16d23(%rip),%rdi        # 1f2c8 <status>
    85a5:	31 f6                	xor    %esi,%esi
    85a7:	e8 14 f1 ff ff       	call   76c0 <intrflush@plt>
  message = newwin (1, 0, LINES-2, 0);
    85ac:	8b 05 ae 6c 01 00    	mov    0x16cae(%rip),%eax        # 1f260 <LINES@NCURSES6_TINFO_5.0.19991023>
    85b2:	31 c9                	xor    %ecx,%ecx
    85b4:	31 f6                	xor    %esi,%esi
    85b6:	bf 01 00 00 00       	mov    $0x1,%edi
    85bb:	8d 50 fe             	lea    -0x2(%rax),%edx
    85be:	e8 1d f5 ff ff       	call   7ae0 <newwin@plt>
  keypad (message, TRUE);
    85c3:	be 01 00 00 00       	mov    $0x1,%esi
  message = newwin (1, 0, LINES-2, 0);
    85c8:	48 89 c7             	mov    %rax,%rdi
    85cb:	48 89 05 ee 6c 01 00 	mov    %rax,0x16cee(%rip)        # 1f2c0 <message>
  keypad (message, TRUE);
    85d2:	e8 99 f2 ff ff       	call   7870 <keypad@plt>
  intrflush (message, FALSE);
    85d7:	48 8b 3d e2 6c 01 00 	mov    0x16ce2(%rip),%rdi        # 1f2c0 <message>
    85de:	31 f6                	xor    %esi,%esi
}
    85e0:	48 83 c4 08          	add    $0x8,%rsp
  intrflush (message, FALSE);
    85e4:	e9 d7 f0 ff ff       	jmp    76c0 <intrflush@plt>
    85e9:	0f 1f 80 00 00 00 00 	nopl   0x0(%rax)

00000000000085f0 <clear_windows>:
{
    85f0:	f3 0f 1e fa          	endbr64 
    85f4:	48 83 ec 08          	sub    $0x8,%rsp
  wclear (moon);  wnoutrefresh (moon);
    85f8:	48 8b 3d d1 6c 01 00 	mov    0x16cd1(%rip),%rdi        # 1f2d0 <moon>
    85ff:	e8 0c f1 ff ff       	call   7710 <wclear@plt>
    8604:	48 8b 3d c5 6c 01 00 	mov    0x16cc5(%rip),%rdi        # 1f2d0 <moon>
    860b:	e8 80 f3 ff ff       	call   7990 <wnoutrefresh@plt>
  wclear (status);  wnoutrefresh (status);
    8610:	48 8b 3d b1 6c 01 00 	mov    0x16cb1(%rip),%rdi        # 1f2c8 <status>
    8617:	e8 f4 f0 ff ff       	call   7710 <wclear@plt>
    861c:	48 8b 3d a5 6c 01 00 	mov    0x16ca5(%rip),%rdi        # 1f2c8 <status>
    8623:	e8 68 f3 ff ff       	call   7990 <wnoutrefresh@plt>
  wclear (message);  wnoutrefresh (message);
    8628:	48 8b 3d 91 6c 01 00 	mov    0x16c91(%rip),%rdi        # 1f2c0 <message>
    862f:	e8 dc f0 ff ff       	call   7710 <wclear@plt>
    8634:	48 8b 3d 85 6c 01 00 	mov    0x16c85(%rip),%rdi        # 1f2c0 <message>
}
    863b:	48 83 c4 08          	add    $0x8,%rsp
  wclear (message);  wnoutrefresh (message);
    863f:	e9 4c f3 ff ff       	jmp    7990 <wnoutrefresh@plt>
    8644:	66 2e 0f 1f 84 00 00 	cs nopw 0x0(%rax,%rax,1)
    864b:	00 00 00 
    864e:	66 90                	xchg   %ax,%ax

0000000000008650 <new_mode>:


struct mode *
new_mode (void)
/* Allocate a new mode struct.  */
{
    8650:	f3 0f 1e fa          	endbr64 
    8654:	41 54                	push   %r12
  struct mode *res = xmalloc (sizeof (struct mode));
    8656:	bf 38 00 00 00       	mov    $0x38,%edi
    865b:	e8 80 73 00 00       	call   f9e0 <xmalloc>
  res->enter = NULL;
  res->leave = NULL;
  res->redraw = NULL;

  DA_INIT (res->keys, struct binding);
    8660:	bf 60 00 00 00       	mov    $0x60,%edi
  res->enter = NULL;
    8665:	48 c7 00 00 00 00 00 	movq   $0x0,(%rax)
  struct mode *res = xmalloc (sizeof (struct mode));
    866c:	49 89 c4             	mov    %rax,%r12
  res->leave = NULL;
    866f:	48 c7 40 08 00 00 00 	movq   $0x0,0x8(%rax)
    8676:	00 
  res->redraw = NULL;
    8677:	48 c7 40 10 00 00 00 	movq   $0x0,0x10(%rax)
    867e:	00 
  DA_INIT (res->keys, struct binding);
    867f:	c7 40 2c 04 00 00 00 	movl   $0x4,0x2c(%rax)
    8686:	e8 55 73 00 00       	call   f9e0 <xmalloc>
    868b:	41 c7 44 24 28 00 00 	movl   $0x0,0x28(%r12)
    8692:	00 00 
    8694:	49 89 44 24 20       	mov    %rax,0x20(%r12)
  res->keypress = NULL;

  return  res;
}
    8699:	4c 89 e0             	mov    %r12,%rax
  res->keypress = NULL;
    869c:	49 c7 44 24 30 00 00 	movq   $0x0,0x30(%r12)
    86a3:	00 00 
}
    86a5:	41 5c                	pop    %r12
    86a7:	c3                   	ret    
    86a8:	0f 1f 84 00 00 00 00 	nopl   0x0(%rax,%rax,1)
    86af:	00 

00000000000086b0 <mode_add_key>:
mode_add_key (struct mode *m, int meanings, const char *desc, int res)
/* Add a key binding to mode M.
 * MEANINGS should a combination (via |) of `mbk_key' values, DESC is
 * the label to display near the bottom of the screen.  RES is passed
 * through to `keypress' handler.  */
{
    86b0:	f3 0f 1e fa          	endbr64 
    86b4:	41 55                	push   %r13
    86b6:	41 89 f5             	mov    %esi,%r13d
    86b9:	41 54                	push   %r12
    86bb:	49 89 d4             	mov    %rdx,%r12
    86be:	55                   	push   %rbp
    86bf:	89 cd                	mov    %ecx,%ebp
    86c1:	53                   	push   %rbx
    86c2:	48 89 fb             	mov    %rdi,%rbx
    86c5:	48 83 ec 08          	sub    $0x8,%rsp
  struct binding *keys;

  DA_ADD_EMPTY (m->keys, struct binding, keys);
    86c9:	8b 57 28             	mov    0x28(%rdi),%edx
    86cc:	8b 4f 2c             	mov    0x2c(%rdi),%ecx
    86cf:	48 8b 7f 20          	mov    0x20(%rdi),%rdi
    86d3:	39 ca                	cmp    %ecx,%edx
    86d5:	7d 29                	jge    8700 <mode_add_key+0x50>
    86d7:	48 63 c2             	movslq %edx,%rax
    86da:	83 c2 01             	add    $0x1,%edx
    86dd:	48 8d 04 40          	lea    (%rax,%rax,2),%rax
    86e1:	89 53 28             	mov    %edx,0x28(%rbx)
    86e4:	48 8d 04 c7          	lea    (%rdi,%rax,8),%rax
  keys->meanings = meanings;
    86e8:	44 89 28             	mov    %r13d,(%rax)
  keys->desc = desc;
    86eb:	4c 89 60 08          	mov    %r12,0x8(%rax)
  keys->res = res;
    86ef:	89 68 10             	mov    %ebp,0x10(%rax)
}
    86f2:	48 83 c4 08          	add    $0x8,%rsp
    86f6:	5b                   	pop    %rbx
    86f7:	5d                   	pop    %rbp
    86f8:	41 5c                	pop    %r12
    86fa:	41 5d                	pop    %r13
    86fc:	c3                   	ret    
    86fd:	0f 1f 00             	nopl   (%rax)
  DA_ADD_EMPTY (m->keys, struct binding, keys);
    8700:	83 c1 04             	add    $0x4,%ecx
    8703:	89 4b 2c             	mov    %ecx,0x2c(%rbx)
    8706:	48 63 c9             	movslq %ecx,%rcx
    8709:	48 8d 34 49          	lea    (%rcx,%rcx,2),%rsi
    870d:	48 c1 e6 03          	shl    $0x3,%rsi
    8711:	e8 fa 72 00 00       	call   fa10 <xrealloc>
    8716:	8b 53 28             	mov    0x28(%rbx),%edx
    8719:	48 89 43 20          	mov    %rax,0x20(%rbx)
    871d:	48 89 c7             	mov    %rax,%rdi
    8720:	eb b5                	jmp    86d7 <mode_add_key+0x27>
    8722:	66 66 2e 0f 1f 84 00 	data16 cs nopw 0x0(%rax,%rax,1)
    8729:	00 00 00 00 
    872d:	0f 1f 00             	nopl   (%rax)

0000000000008730 <mode_complete>:

void
mode_complete (struct mode *m)
/* This must be called at the very end of each mode's initialisation.  */
{
    8730:	f3 0f 1e fa          	endbr64 
    8734:	53                   	push   %rbx
  DA_ADD_EMPTY (m->keys, struct binding, keys);
    8735:	8b 57 28             	mov    0x28(%rdi),%edx
{
    8738:	48 89 fb             	mov    %rdi,%rbx
  DA_ADD_EMPTY (m->keys, struct binding, keys);
    873b:	8b 4f 2c             	mov    0x2c(%rdi),%ecx
    873e:	48 8b 7f 20          	mov    0x20(%rdi),%rdi
    8742:	39 ca                	cmp    %ecx,%edx
    8744:	7d 32                	jge    8778 <mode_complete+0x48>
    8746:	48 63 c2             	movslq %edx,%rax
  keys->desc = desc;
    8749:	48 8d 35 44 7c 00 00 	lea    0x7c44(%rip),%rsi        # 10394 <_IO_stdin_used+0x394>
  DA_ADD_EMPTY (m->keys, struct binding, keys);
    8750:	83 c2 01             	add    $0x1,%edx
    8753:	48 8d 04 40          	lea    (%rax,%rax,2),%rax
    8757:	89 53 28             	mov    %edx,0x28(%rbx)
    875a:	48 8d 04 c7          	lea    (%rdi,%rax,8),%rax
  keys->meanings = meanings;
    875e:	c7 00 00 20 00 00    	movl   $0x2000,(%rax)
  keys->desc = desc;
    8764:	48 89 70 08          	mov    %rsi,0x8(%rax)
  keys->res = res;
    8768:	c7 40 10 00 00 00 00 	movl   $0x0,0x10(%rax)
  mode_add_key (m, mbk_redraw, "redraw", 0);
}
    876f:	5b                   	pop    %rbx
    8770:	c3                   	ret    
    8771:	0f 1f 80 00 00 00 00 	nopl   0x0(%rax)
  DA_ADD_EMPTY (m->keys, struct binding, keys);
    8778:	83 c1 04             	add    $0x4,%ecx
    877b:	89 4b 2c             	mov    %ecx,0x2c(%rbx)
    877e:	48 63 c9             	movslq %ecx,%rcx
    8781:	48 8d 34 49          	lea    (%rcx,%rcx,2),%rsi
    8785:	48 c1 e6 03          	shl    $0x3,%rsi
    8789:	e8 82 72 00 00       	call   fa10 <xrealloc>
    878e:	8b 53 28             	mov    0x28(%rbx),%edx
    8791:	48 89 43 20          	mov    %rax,0x20(%rbx)
    8795:	48 89 c7             	mov    %rax,%rdi
    8798:	eb ac                	jmp    8746 <mode_complete+0x16>
    879a:	66 0f 1f 44 00 00    	nopw   0x0(%rax,%rax,1)

00000000000087a0 <mode_change>:

void
mode_change (const struct mode *m, int seed)
/* Change into new mode M.  Pass SEED to the `enter' handler.  */
{
    87a0:	f3 0f 1e fa          	endbr64 
    87a4:	55                   	push   %rbp
    87a5:	48 89 fd             	mov    %rdi,%rbp
    87a8:	53                   	push   %rbx
    87a9:	89 f3                	mov    %esi,%ebx
    87ab:	48 83 ec 08          	sub    $0x8,%rsp
  if (mode_entered && current->leave)  current->leave ();
    87af:	8b 05 37 6b 01 00    	mov    0x16b37(%rip),%eax        # 1f2ec <mode_entered>
    87b5:	85 c0                	test   %eax,%eax
    87b7:	74 12                	je     87cb <mode_change+0x2b>
    87b9:	48 8b 05 30 6b 01 00 	mov    0x16b30(%rip),%rax        # 1f2f0 <current>
    87c0:	48 8b 40 08          	mov    0x8(%rax),%rax
    87c4:	48 85 c0             	test   %rax,%rax
    87c7:	74 02                	je     87cb <mode_change+0x2b>
    87c9:	ff d0                	call   *%rax

  current = m;
    87cb:	48 89 2d 1e 6b 01 00 	mov    %rbp,0x16b1e(%rip)        # 1f2f0 <current>
  mode_entered = 0;
  mode_seed = seed;
    87d2:	89 1d 10 6b 01 00    	mov    %ebx,0x16b10(%rip)        # 1f2e8 <mode_seed>
  mode_entered = 0;
    87d8:	c7 05 0a 6b 01 00 00 	movl   $0x0,0x16b0a(%rip)        # 1f2ec <mode_entered>
    87df:	00 00 00 
}
    87e2:	48 83 c4 08          	add    $0x8,%rsp
    87e6:	5b                   	pop    %rbx
    87e7:	5d                   	pop    %rbp
    87e8:	c3                   	ret    
    87e9:	0f 1f 80 00 00 00 00 	nopl   0x0(%rax)

00000000000087f0 <mode_update>:
}

void
mode_update (void)
/* Flush queued mode updates.  */
{
    87f0:	f3 0f 1e fa          	endbr64 
  if (! mode_entered) {
    87f4:	8b 0d f2 6a 01 00    	mov    0x16af2(%rip),%ecx        # 1f2ec <mode_entered>
    87fa:	85 c9                	test   %ecx,%ecx
    87fc:	74 0a                	je     8808 <mode_update+0x18>
    clear_queue ();
    mode_enter ();
    mode_redraw ();
  }
  doupdate ();
    87fe:	e9 2d ef ff ff       	jmp    7730 <doupdate@plt>
    8803:	0f 1f 44 00 00       	nopl   0x0(%rax,%rax,1)
{
    8808:	48 83 ec 08          	sub    $0x8,%rsp
    clear_queue ();
    880c:	e8 7f 51 00 00       	call   d990 <clear_queue>
  werase (moon);
    8811:	48 8b 3d b8 6a 01 00 	mov    0x16ab8(%rip),%rdi        # 1f2d0 <moon>
    8818:	e8 83 ef ff ff       	call   77a0 <werase@plt>
  wnoutrefresh (moon);
    881d:	48 8b 3d ac 6a 01 00 	mov    0x16aac(%rip),%rdi        # 1f2d0 <moon>
    8824:	e8 67 f1 ff ff       	call   7990 <wnoutrefresh@plt>
  if (! current)  return;
    8829:	48 8b 05 c0 6a 01 00 	mov    0x16ac0(%rip),%rax        # 1f2f0 <current>
    8830:	48 85 c0             	test   %rax,%rax
    8833:	74 53                	je     8888 <mode_update+0x98>
  if (current->enter)  current->enter (mode_seed);
    8835:	48 8b 10             	mov    (%rax),%rdx
    8838:	48 85 d2             	test   %rdx,%rdx
    883b:	74 0f                	je     884c <mode_update+0x5c>
    883d:	8b 3d a5 6a 01 00    	mov    0x16aa5(%rip),%edi        # 1f2e8 <mode_seed>
    8843:	ff d2                	call   *%rdx
mode_redraw (void)
/* Make the current mode redraw the screen but leave the status message intact.
 * This is also called after the screen is resized.  */
{
  if (! mode_entered)  return;
  describe_keys (current->keys.used, current->keys.data);
    8845:	48 8b 05 a4 6a 01 00 	mov    0x16aa4(%rip),%rax        # 1f2f0 <current>
  mode_entered = 1;
    884c:	c7 05 96 6a 01 00 01 	movl   $0x1,0x16a96(%rip)        # 1f2ec <mode_entered>
    8853:	00 00 00 
  describe_keys (current->keys.used, current->keys.data);
    8856:	48 8b 70 20          	mov    0x20(%rax),%rsi
    885a:	8b 78 28             	mov    0x28(%rax),%edi
    885d:	e8 2e 67 00 00       	call   ef90 <describe_keys>
  if (current->redraw)  current->redraw ();
    8862:	48 8b 05 87 6a 01 00 	mov    0x16a87(%rip),%rax        # 1f2f0 <current>
    8869:	48 8b 40 10          	mov    0x10(%rax),%rax
    886d:	48 85 c0             	test   %rax,%rax
    8870:	74 02                	je     8874 <mode_update+0x84>
    8872:	ff d0                	call   *%rax
  doupdate ();
    8874:	e8 b7 ee ff ff       	call   7730 <doupdate@plt>
}
    8879:	48 83 c4 08          	add    $0x8,%rsp
  doupdate ();
    887d:	e9 ae ee ff ff       	jmp    7730 <doupdate@plt>
    8882:	66 0f 1f 44 00 00    	nopw   0x0(%rax,%rax,1)
  if (! mode_entered)  return;
    8888:	8b 15 5e 6a 01 00    	mov    0x16a5e(%rip),%edx        # 1f2ec <mode_entered>
    888e:	85 d2                	test   %edx,%edx
    8890:	75 c4                	jne    8856 <mode_update+0x66>
}
    8892:	48 83 c4 08          	add    $0x8,%rsp
  doupdate ();
    8896:	e9 95 ee ff ff       	jmp    7730 <doupdate@plt>
    889b:	0f 1f 44 00 00       	nopl   0x0(%rax,%rax,1)

00000000000088a0 <mode_redraw>:
{
    88a0:	f3 0f 1e fa          	endbr64 
  if (! mode_entered)  return;
    88a4:	8b 05 42 6a 01 00    	mov    0x16a42(%rip),%eax        # 1f2ec <mode_entered>
    88aa:	85 c0                	test   %eax,%eax
    88ac:	75 02                	jne    88b0 <mode_redraw+0x10>
    88ae:	c3                   	ret    
    88af:	90                   	nop
{
    88b0:	48 83 ec 08          	sub    $0x8,%rsp
  describe_keys (current->keys.used, current->keys.data);
    88b4:	48 8b 05 35 6a 01 00 	mov    0x16a35(%rip),%rax        # 1f2f0 <current>
    88bb:	48 8b 70 20          	mov    0x20(%rax),%rsi
    88bf:	8b 78 28             	mov    0x28(%rax),%edi
    88c2:	e8 c9 66 00 00       	call   ef90 <describe_keys>
  if (current->redraw)  current->redraw ();
    88c7:	48 8b 05 22 6a 01 00 	mov    0x16a22(%rip),%rax        # 1f2f0 <current>
    88ce:	48 8b 40 10          	mov    0x10(%rax),%rax
    88d2:	48 85 c0             	test   %rax,%rax
    88d5:	74 02                	je     88d9 <mode_redraw+0x39>
    88d7:	ff d0                	call   *%rax
}
    88d9:	48 83 c4 08          	add    $0x8,%rsp
  doupdate ();
    88dd:	e9 4e ee ff ff       	jmp    7730 <doupdate@plt>
    88e2:	66 66 2e 0f 1f 84 00 	data16 cs nopw 0x0(%rax,%rax,1)
    88e9:	00 00 00 00 
    88ed:	0f 1f 00             	nopl   (%rax)

00000000000088f0 <mode_keypress>:

int
mode_keypress (game_time t, int meaning)
/* Feed a keypress with meaning MEANING to the current mode.
 * Return 1 if the keypress could be processed, and 0 else.  */
{
    88f0:	f3 0f 1e fa          	endbr64 
    88f4:	48 83 ec 08          	sub    $0x8,%rsp
  int  i;

  if (meaning == mbk_redraw) {
    88f8:	81 ff 00 20 00 00    	cmp    $0x2000,%edi
    88fe:	74 50                	je     8950 <mode_keypress+0x60>
    clear_windows ();
    mode_redraw ();
    return  1;
  }
  for (i=0; i<current->keys.used; ++i) {
    8900:	48 8b 0d e9 69 01 00 	mov    0x169e9(%rip),%rcx        # 1f2f0 <current>
    if (current->keys.data[i].meanings & meaning) {
      current->keypress (t, current->keys.data[i].res);
      return  1;
    }
  }
  return  0;
    8907:	45 31 c0             	xor    %r8d,%r8d
  for (i=0; i<current->keys.used; ++i) {
    890a:	8b 51 28             	mov    0x28(%rcx),%edx
    890d:	85 d2                	test   %edx,%edx
    890f:	7e 34                	jle    8945 <mode_keypress+0x55>
    8911:	48 8b 41 20          	mov    0x20(%rcx),%rax
    8915:	83 ea 01             	sub    $0x1,%edx
    8918:	48 8d 14 52          	lea    (%rdx,%rdx,2),%rdx
    891c:	48 8d 54 d0 18       	lea    0x18(%rax,%rdx,8),%rdx
    8921:	eb 0e                	jmp    8931 <mode_keypress+0x41>
    8923:	0f 1f 44 00 00       	nopl   0x0(%rax,%rax,1)
    8928:	48 83 c0 18          	add    $0x18,%rax
    892c:	48 39 d0             	cmp    %rdx,%rax
    892f:	74 14                	je     8945 <mode_keypress+0x55>
    if (current->keys.data[i].meanings & meaning) {
    8931:	41 89 f8             	mov    %edi,%r8d
    8934:	44 23 00             	and    (%rax),%r8d
    8937:	74 ef                	je     8928 <mode_keypress+0x38>
      current->keypress (t, current->keys.data[i].res);
    8939:	8b 78 10             	mov    0x10(%rax),%edi
    893c:	ff 51 30             	call   *0x30(%rcx)
      return  1;
    893f:	41 b8 01 00 00 00    	mov    $0x1,%r8d
}
    8945:	44 89 c0             	mov    %r8d,%eax
    8948:	48 83 c4 08          	add    $0x8,%rsp
    894c:	c3                   	ret    
    894d:	0f 1f 00             	nopl   (%rax)
    clear_windows ();
    8950:	e8 9b fc ff ff       	call   85f0 <clear_windows>
  if (! mode_entered)  return;
    8955:	8b 05 91 69 01 00    	mov    0x16991(%rip),%eax        # 1f2ec <mode_entered>
    return  1;
    895b:	41 b8 01 00 00 00    	mov    $0x1,%r8d
  if (! mode_entered)  return;
    8961:	85 c0                	test   %eax,%eax
    8963:	74 e0                	je     8945 <mode_keypress+0x55>
  describe_keys (current->keys.used, current->keys.data);
    8965:	48 8b 05 84 69 01 00 	mov    0x16984(%rip),%rax        # 1f2f0 <current>
    896c:	48 8b 70 20          	mov    0x20(%rax),%rsi
    8970:	8b 78 28             	mov    0x28(%rax),%edi
    8973:	e8 18 66 00 00       	call   ef90 <describe_keys>
  if (current->redraw)  current->redraw ();
    8978:	48 8b 05 71 69 01 00 	mov    0x16971(%rip),%rax        # 1f2f0 <current>
    897f:	48 8b 40 10          	mov    0x10(%rax),%rax
    8983:	48 85 c0             	test   %rax,%rax
    8986:	74 02                	je     898a <mode_keypress+0x9a>
    8988:	ff d0                	call   *%rax
  doupdate ();
    898a:	e8 a1 ed ff ff       	call   7730 <doupdate@plt>
    return  1;
    898f:	41 b8 01 00 00 00    	mov    $0x1,%r8d
    8995:	eb ae                	jmp    8945 <mode_keypress+0x55>
    8997:	66 0f 1f 84 00 00 00 	nopw   0x0(%rax,%rax,1)
    899e:	00 00 

00000000000089a0 <mode_signal>:

void
mode_signal (int signum)
/* Feed signal SIGNUM to the current mode.  */
{
    89a0:	f3 0f 1e fa          	endbr64 
  if (current->signal)  current->signal (signum);
    89a4:	48 8b 05 45 69 01 00 	mov    0x16945(%rip),%rax        # 1f2f0 <current>
    89ab:	48 8b 40 18          	mov    0x18(%rax),%rax
    89af:	48 85 c0             	test   %rax,%rax
    89b2:	74 0c                	je     89c0 <mode_signal+0x20>
    89b4:	ff e0                	jmp    *%rax
    89b6:	66 2e 0f 1f 84 00 00 	cs nopw 0x0(%rax,%rax,1)
    89bd:	00 00 00 
}
    89c0:	c3                   	ret    
    89c1:	66 2e 0f 1f 84 00 00 	cs nopw 0x0(%rax,%rax,1)
    89c8:	00 00 00 
    89cb:	0f 1f 44 00 00       	nopl   0x0(%rax,%rax,1)

00000000000089d0 <key_handler>:
  print_title ();
}

static void
key_handler (game_time t, int val)
{
    89d0:	f3 0f 1e fa          	endbr64 
  switch (val) {
    89d4:	83 ff 05             	cmp    $0x5,%edi
    89d7:	77 68                	ja     8a41 <key_handler+0x71>
    89d9:	48 8d 15 bc 79 00 00 	lea    0x79bc(%rip),%rdx        # 1039c <_IO_stdin_used+0x39c>
    89e0:	89 ff                	mov    %edi,%edi
    89e2:	48 63 04 ba          	movslq (%rdx,%rdi,4),%rax
    89e6:	48 01 d0             	add    %rdx,%rax
    89e9:	3e ff e0             	notrack jmp *%rax
    89ec:	0f 1f 40 00          	nopl   0x0(%rax)
    break;
  case 4:
    mode_change (pager_mode, 1);
    break;
  case 5:
    mode_change (highscore_mode, 0);
    89f0:	48 8b 3d e9 69 01 00 	mov    0x169e9(%rip),%rdi        # 1f3e0 <highscore_mode>
    89f7:	31 f6                	xor    %esi,%esi
    89f9:	e9 a2 fd ff ff       	jmp    87a0 <mode_change>
    89fe:	66 90                	xchg   %ax,%ax
    mode_change (game_mode, 0);
    8a00:	48 8b 3d 19 69 01 00 	mov    0x16919(%rip),%rdi        # 1f320 <game_mode>
    8a07:	31 f6                	xor    %esi,%esi
    8a09:	e9 92 fd ff ff       	jmp    87a0 <mode_change>
    8a0e:	66 90                	xchg   %ax,%ax
    quit_main_loop ();
    8a10:	e9 9b 51 00 00       	jmp    dbb0 <quit_main_loop>
    8a15:	0f 1f 00             	nopl   (%rax)
    mode_change (pager_mode, 0);
    8a18:	48 8b 3d e1 68 01 00 	mov    0x168e1(%rip),%rdi        # 1f300 <pager_mode>
    8a1f:	31 f6                	xor    %esi,%esi
    8a21:	e9 7a fd ff ff       	jmp    87a0 <mode_change>
    8a26:	66 2e 0f 1f 84 00 00 	cs nopw 0x0(%rax,%rax,1)
    8a2d:	00 00 00 
    mode_change (pager_mode, 1);
    8a30:	48 8b 3d c9 68 01 00 	mov    0x168c9(%rip),%rdi        # 1f300 <pager_mode>
    8a37:	be 01 00 00 00       	mov    $0x1,%esi
    8a3c:	e9 5f fd ff ff       	jmp    87a0 <mode_change>
    break;
  }
}
    8a41:	c3                   	ret    
    8a42:	66 66 2e 0f 1f 84 00 	data16 cs nopw 0x0(%rax,%rax,1)
    8a49:	00 00 00 00 
    8a4d:	0f 1f 00             	nopl   (%rax)

0000000000008a50 <title_redraw>:
{
    8a50:	f3 0f 1e fa          	endbr64 
    8a54:	41 54                	push   %r12
  resize_ground (1);
    8a56:	bf 01 00 00 00       	mov    $0x1,%edi
{
    8a5b:	55                   	push   %rbp
    8a5c:	53                   	push   %rbx
  resize_ground (1);
    8a5d:	e8 be 1b 00 00       	call   a620 <resize_ground>
  print_ground ();
    8a62:	e8 a9 1c 00 00       	call   a710 <print_ground>
  mvwaddstr (moon, 0, 0, "  Moon-Buggy version "
    8a67:	48 8b 3d 62 68 01 00 	mov    0x16862(%rip),%rdi        # 1f2d0 <moon>
    8a6e:	31 d2                	xor    %edx,%edx
    8a70:	31 f6                	xor    %esi,%esi
    8a72:	e8 29 f0 ff ff       	call   7aa0 <wmove@plt>
    8a77:	83 f8 ff             	cmp    $0xffffffff,%eax
    8a7a:	74 18                	je     8a94 <title_redraw+0x44>
    8a7c:	48 8b 3d 4d 68 01 00 	mov    0x1684d(%rip),%rdi        # 1f2d0 <moon>
    8a83:	ba ff ff ff ff       	mov    $0xffffffff,%edx
    8a88:	48 8d 35 29 79 00 00 	lea    0x7929(%rip),%rsi        # 103b8 <_IO_stdin_used+0x3b8>
    8a8f:	e8 7c f0 ff ff       	call   7b10 <waddnstr@plt>
  waddstr (moon, "  Moon-Buggy comes with ABSOLUTELY NO WARRANTY;"
    8a94:	48 8b 3d 35 68 01 00 	mov    0x16835(%rip),%rdi        # 1f2d0 <moon>
    8a9b:	ba ff ff ff ff       	mov    $0xffffffff,%edx
    8aa0:	48 8d 35 61 79 00 00 	lea    0x7961(%rip),%rsi        # 10408 <_IO_stdin_used+0x408>
    8aa7:	e8 64 f0 ff ff       	call   7b10 <waddnstr@plt>
  waddstr (moon,
    8aac:	48 8b 3d 1d 68 01 00 	mov    0x1681d(%rip),%rdi        # 1f2d0 <moon>
    8ab3:	ba ff ff ff ff       	mov    $0xffffffff,%edx
    8ab8:	48 8d 35 91 79 00 00 	lea    0x7991(%rip),%rsi        # 10450 <_IO_stdin_used+0x450>
    8abf:	e8 4c f0 ff ff       	call   7b10 <waddnstr@plt>
  if (5 + title_lines + 5 <= LINES) {
    8ac4:	8b 05 96 67 01 00    	mov    0x16796(%rip),%eax        # 1f260 <LINES@NCURSES6_TINFO_5.0.19991023>
    8aca:	83 f8 16             	cmp    $0x16,%eax
    8acd:	0f 8e 8a 00 00 00    	jle    8b5d <title_redraw+0x10d>
    int  top = (LINES-title_lines)/3.0 + 0.5;
    8ad3:	83 e8 0d             	sub    $0xd,%eax
    8ad6:	66 0f ef c0          	pxor   %xmm0,%xmm0
    8ada:	48 8d 1d 3f 65 01 00 	lea    0x1653f(%rip),%rbx        # 1f020 <title>
    8ae1:	f2 0f 2a c0          	cvtsi2sd %eax,%xmm0
    8ae5:	f2 0f 5e 05 33 7c 00 	divsd  0x7c33(%rip),%xmm0        # 10720 <_IO_stdin_used+0x720>
    8aec:	00 
    8aed:	f2 0f 58 05 33 7c 00 	addsd  0x7c33(%rip),%xmm0        # 10728 <_IO_stdin_used+0x728>
    8af4:	00 
    8af5:	b8 05 00 00 00       	mov    $0x5,%eax
    8afa:	48 8d 6b 68          	lea    0x68(%rbx),%rbp
    8afe:	f2 44 0f 2c e0       	cvttsd2si %xmm0,%r12d
    8b03:	41 39 c4             	cmp    %eax,%r12d
    8b06:	44 0f 4c e0          	cmovl  %eax,%r12d
    8b0a:	66 0f 1f 44 00 00    	nopw   0x0(%rax,%rax,1)
      mvwaddstr (moon, top+i, (COLS-49)/2, title[i]);
    8b10:	8b 05 52 67 01 00    	mov    0x16752(%rip),%eax        # 1f268 <COLS@NCURSES6_TINFO_5.0.19991023>
    8b16:	48 8b 3d b3 67 01 00 	mov    0x167b3(%rip),%rdi        # 1f2d0 <moon>
    8b1d:	44 89 e6             	mov    %r12d,%esi
    8b20:	83 e8 31             	sub    $0x31,%eax
    8b23:	89 c2                	mov    %eax,%edx
    8b25:	c1 ea 1f             	shr    $0x1f,%edx
    8b28:	01 c2                	add    %eax,%edx
    8b2a:	d1 fa                	sar    %edx
    8b2c:	e8 6f ef ff ff       	call   7aa0 <wmove@plt>
    8b31:	83 f8 ff             	cmp    $0xffffffff,%eax
    8b34:	74 14                	je     8b4a <title_redraw+0xfa>
    8b36:	48 8b 33             	mov    (%rbx),%rsi
    8b39:	48 8b 3d 90 67 01 00 	mov    0x16790(%rip),%rdi        # 1f2d0 <moon>
    8b40:	ba ff ff ff ff       	mov    $0xffffffff,%edx
    8b45:	e8 c6 ef ff ff       	call   7b10 <waddnstr@plt>
    for (i=0; i<title_lines; ++i) {
    8b4a:	48 83 c3 08          	add    $0x8,%rbx
    8b4e:	41 83 c4 01          	add    $0x1,%r12d
    8b52:	48 39 dd             	cmp    %rbx,%rbp
    8b55:	75 b9                	jne    8b10 <title_redraw+0xc0>
  if (5 + title_lines + 7 <= LINES
    8b57:	8b 05 03 67 01 00    	mov    0x16703(%rip),%eax        # 1f260 <LINES@NCURSES6_TINFO_5.0.19991023>
      || 5 + title_lines + 5 > LINES)  print_buggy ();
    8b5d:	83 e8 17             	sub    $0x17,%eax
    8b60:	83 f8 01             	cmp    $0x1,%eax
    8b63:	76 05                	jbe    8b6a <title_redraw+0x11a>
    8b65:	e8 e6 1f 00 00       	call   ab50 <print_buggy>
  wnoutrefresh (moon);
    8b6a:	48 8b 3d 5f 67 01 00 	mov    0x1675f(%rip),%rdi        # 1f2d0 <moon>
}
    8b71:	5b                   	pop    %rbx
    8b72:	5d                   	pop    %rbp
    8b73:	41 5c                	pop    %r12
  wnoutrefresh (moon);
    8b75:	e9 16 ee ff ff       	jmp    7990 <wnoutrefresh@plt>
    8b7a:	66 0f 1f 44 00 00    	nopw   0x0(%rax,%rax,1)

0000000000008b80 <setup_title_mode>:

void
setup_title_mode (void)
{
    8b80:	f3 0f 1e fa          	endbr64 
    8b84:	48 83 ec 08          	sub    $0x8,%rsp
  title_mode = new_mode ();
    8b88:	e8 c3 fa ff ff       	call   8650 <new_mode>
  title_mode->redraw = title_redraw;
  title_mode->keypress = key_handler;
  mode_add_key (title_mode, mbk_start, "start game", 1);
    8b8d:	b9 01 00 00 00       	mov    $0x1,%ecx
    8b92:	be 00 02 00 00       	mov    $0x200,%esi
    8b97:	48 8d 15 47 7b 00 00 	lea    0x7b47(%rip),%rdx        # 106e5 <_IO_stdin_used+0x6e5>
  title_mode = new_mode ();
    8b9e:	48 89 c7             	mov    %rax,%rdi
    8ba1:	48 89 05 50 67 01 00 	mov    %rax,0x16750(%rip)        # 1f2f8 <title_mode>
  title_mode->redraw = title_redraw;
    8ba8:	48 8d 05 a1 fe ff ff 	lea    -0x15f(%rip),%rax        # 8a50 <title_redraw>
    8baf:	48 89 47 10          	mov    %rax,0x10(%rdi)
  title_mode->keypress = key_handler;
    8bb3:	48 8d 05 16 fe ff ff 	lea    -0x1ea(%rip),%rax        # 89d0 <key_handler>
    8bba:	48 89 47 30          	mov    %rax,0x30(%rdi)
  mode_add_key (title_mode, mbk_start, "start game", 1);
    8bbe:	e8 ed fa ff ff       	call   86b0 <mode_add_key>
  mode_add_key (title_mode, mbk_end, "quit", 2);
    8bc3:	b9 02 00 00 00       	mov    $0x2,%ecx
    8bc8:	be 04 00 00 00       	mov    $0x4,%esi
    8bcd:	48 8b 3d 24 67 01 00 	mov    0x16724(%rip),%rdi        # 1f2f8 <title_mode>
    8bd4:	48 8d 15 15 7b 00 00 	lea    0x7b15(%rip),%rdx        # 106f0 <_IO_stdin_used+0x6f0>
    8bdb:	e8 d0 fa ff ff       	call   86b0 <mode_add_key>
  mode_add_key (title_mode, mbk_copyright, "show copyright", 3);
    8be0:	b9 03 00 00 00       	mov    $0x3,%ecx
    8be5:	be 01 00 00 00       	mov    $0x1,%esi
    8bea:	48 8b 3d 07 67 01 00 	mov    0x16707(%rip),%rdi        # 1f2f8 <title_mode>
    8bf1:	48 8d 15 fd 7a 00 00 	lea    0x7afd(%rip),%rdx        # 106f5 <_IO_stdin_used+0x6f5>
    8bf8:	e8 b3 fa ff ff       	call   86b0 <mode_add_key>
  mode_add_key (title_mode, mbk_warranty, "show warranty", 4);
    8bfd:	b9 04 00 00 00       	mov    $0x4,%ecx
    8c02:	be 00 08 00 00       	mov    $0x800,%esi
    8c07:	48 8b 3d ea 66 01 00 	mov    0x166ea(%rip),%rdi        # 1f2f8 <title_mode>
    8c0e:	48 8d 15 ef 7a 00 00 	lea    0x7aef(%rip),%rdx        # 10704 <_IO_stdin_used+0x704>
    8c15:	e8 96 fa ff ff       	call   86b0 <mode_add_key>
  mode_add_key (title_mode, mbk_scores, "show scores", 5);
    8c1a:	b9 05 00 00 00       	mov    $0x5,%ecx
    8c1f:	be 00 10 00 00       	mov    $0x1000,%esi
    8c24:	48 8b 3d cd 66 01 00 	mov    0x166cd(%rip),%rdi        # 1f2f8 <title_mode>
    8c2b:	48 8d 15 e0 7a 00 00 	lea    0x7ae0(%rip),%rdx        # 10712 <_IO_stdin_used+0x712>
    8c32:	e8 79 fa ff ff       	call   86b0 <mode_add_key>
  mode_complete (title_mode);
    8c37:	48 8b 3d ba 66 01 00 	mov    0x166ba(%rip),%rdi        # 1f2f8 <title_mode>
}
    8c3e:	48 83 c4 08          	add    $0x8,%rsp
  mode_complete (title_mode);
    8c42:	e9 e9 fa ff ff       	jmp    8730 <mode_complete>
    8c47:	66 0f 1f 84 00 00 00 	nopw   0x0(%rax,%rax,1)
    8c4e:	00 00 

0000000000008c50 <print_page>:
static  int  mb_lines = 25;


static void
print_page (unsigned current_line)
{
    8c50:	41 56                	push   %r14
    8c52:	4c 8d 35 d7 7a 00 00 	lea    0x7ad7(%rip),%r14        # 10730 <_IO_stdin_used+0x730>
    8c59:	41 55                	push   %r13
    8c5b:	4c 8d 2d be 46 01 00 	lea    0x146be(%rip),%r13        # 1d320 <copying_lines>
    8c62:	41 54                	push   %r12
    8c64:	41 89 fc             	mov    %edi,%r12d
    8c67:	55                   	push   %rbp
    8c68:	44 89 e5             	mov    %r12d,%ebp
    8c6b:	53                   	push   %rbx
    8c6c:	31 db                	xor    %ebx,%ebx
  int  i;

  for (i=0; i<mb_lines-3; ++i) {
    8c6e:	83 3d 13 64 01 00 03 	cmpl   $0x3,0x16413(%rip)        # 1f088 <mb_lines>
    8c75:	7f 4a                	jg     8cc1 <print_page+0x71>
    8c77:	e9 84 00 00 00       	jmp    8d00 <print_page+0xb0>
    8c7c:	0f 1f 40 00          	nopl   0x0(%rax)
    if (current_line + i < lines_used) {
      mvwaddstr (moon, i, 2, copying_lines[current_line+i]);
    8c80:	e8 1b ee ff ff       	call   7aa0 <wmove@plt>
    8c85:	83 f8 ff             	cmp    $0xffffffff,%eax
    8c88:	74 18                	je     8ca2 <print_page+0x52>
    8c8a:	89 e8                	mov    %ebp,%eax
    8c8c:	48 8b 3d 3d 66 01 00 	mov    0x1663d(%rip),%rdi        # 1f2d0 <moon>
    8c93:	ba ff ff ff ff       	mov    $0xffffffff,%edx
    8c98:	49 8b 74 c5 00       	mov    0x0(%r13,%rax,8),%rsi
    8c9d:	e8 6e ee ff ff       	call   7b10 <waddnstr@plt>
    } else {
      mvwaddstr (moon, i, 2, "~");
    }
    wclrtoeol (moon);
    8ca2:	48 8b 3d 27 66 01 00 	mov    0x16627(%rip),%rdi        # 1f2d0 <moon>
  for (i=0; i<mb_lines-3; ++i) {
    8ca9:	83 c3 01             	add    $0x1,%ebx
    8cac:	83 c5 01             	add    $0x1,%ebp
    wclrtoeol (moon);
    8caf:	e8 6c ee ff ff       	call   7b20 <wclrtoeol@plt>
  for (i=0; i<mb_lines-3; ++i) {
    8cb4:	8b 05 ce 63 01 00    	mov    0x163ce(%rip),%eax        # 1f088 <mb_lines>
    8cba:	83 e8 03             	sub    $0x3,%eax
    8cbd:	39 d8                	cmp    %ebx,%eax
    8cbf:	7e 3f                	jle    8d00 <print_page+0xb0>
    if (current_line + i < lines_used) {
    8cc1:	39 2d 45 66 01 00    	cmp    %ebp,0x16645(%rip)        # 1f30c <lines_used>
      mvwaddstr (moon, i, 2, copying_lines[current_line+i]);
    8cc7:	48 8b 3d 02 66 01 00 	mov    0x16602(%rip),%rdi        # 1f2d0 <moon>
    8cce:	ba 02 00 00 00       	mov    $0x2,%edx
    8cd3:	89 de                	mov    %ebx,%esi
    if (current_line + i < lines_used) {
    8cd5:	77 a9                	ja     8c80 <print_page+0x30>
      mvwaddstr (moon, i, 2, "~");
    8cd7:	e8 c4 ed ff ff       	call   7aa0 <wmove@plt>
    8cdc:	83 f8 ff             	cmp    $0xffffffff,%eax
    8cdf:	74 c1                	je     8ca2 <print_page+0x52>
    8ce1:	48 8b 3d e8 65 01 00 	mov    0x165e8(%rip),%rdi        # 1f2d0 <moon>
    8ce8:	ba ff ff ff ff       	mov    $0xffffffff,%edx
    8ced:	4c 89 f6             	mov    %r14,%rsi
    8cf0:	e8 1b ee ff ff       	call   7b10 <waddnstr@plt>
    8cf5:	eb ab                	jmp    8ca2 <print_page+0x52>
    8cf7:	66 0f 1f 84 00 00 00 	nopw   0x0(%rax,%rax,1)
    8cfe:	00 00 
  }
  wnoutrefresh (moon);
    8d00:	48 8b 3d c9 65 01 00 	mov    0x165c9(%rip),%rdi        # 1f2d0 <moon>
    8d07:	e8 84 ec ff ff       	call   7990 <wnoutrefresh@plt>

  mvwprintw (status, 0, 0, "=== COPYING %3d%% ===  ",
             lines_used==0 ? 100 :(int)(current_line*100.0/(lines_used-1)+.5));
    8d0c:	8b 05 fa 65 01 00    	mov    0x165fa(%rip),%eax        # 1f30c <lines_used>
  mvwprintw (status, 0, 0, "=== COPYING %3d%% ===  ",
    8d12:	41 b8 64 00 00 00    	mov    $0x64,%r8d
    8d18:	85 c0                	test   %eax,%eax
    8d1a:	74 2d                	je     8d49 <print_page+0xf9>
             lines_used==0 ? 100 :(int)(current_line*100.0/(lines_used-1)+.5));
    8d1c:	66 0f ef c0          	pxor   %xmm0,%xmm0
    8d20:	83 e8 01             	sub    $0x1,%eax
    8d23:	66 0f ef c9          	pxor   %xmm1,%xmm1
    8d27:	f2 49 0f 2a c4       	cvtsi2sd %r12,%xmm0
    8d2c:	f2 0f 59 05 f4 09 01 	mulsd  0x109f4(%rip),%xmm0        # 19728 <_IO_stdin_used+0x9728>
    8d33:	00 
    8d34:	f2 0f 2a c8          	cvtsi2sd %eax,%xmm1
    8d38:	f2 0f 5e c1          	divsd  %xmm1,%xmm0
    8d3c:	f2 0f 58 05 e4 79 00 	addsd  0x79e4(%rip),%xmm0        # 10728 <_IO_stdin_used+0x728>
    8d43:	00 
  mvwprintw (status, 0, 0, "=== COPYING %3d%% ===  ",
    8d44:	f2 44 0f 2c c0       	cvttsd2si %xmm0,%r8d
    8d49:	48 8b 3d 78 65 01 00 	mov    0x16578(%rip),%rdi        # 1f2c8 <status>
    8d50:	31 d2                	xor    %edx,%edx
    8d52:	31 f6                	xor    %esi,%esi
    8d54:	31 c0                	xor    %eax,%eax
    8d56:	48 8d 0d d5 79 00 00 	lea    0x79d5(%rip),%rcx        # 10732 <_IO_stdin_used+0x732>
    8d5d:	e8 9e ea ff ff       	call   7800 <mvwprintw@plt>
  wnoutrefresh (status);
    8d62:	48 8b 3d 5f 65 01 00 	mov    0x1655f(%rip),%rdi        # 1f2c8 <status>
}
    8d69:	5b                   	pop    %rbx
    8d6a:	5d                   	pop    %rbp
    8d6b:	41 5c                	pop    %r12
    8d6d:	41 5d                	pop    %r13
    8d6f:	41 5e                	pop    %r14
  wnoutrefresh (status);
    8d71:	e9 1a ec ff ff       	jmp    7990 <wnoutrefresh@plt>
    8d76:	66 2e 0f 1f 84 00 00 	cs nopw 0x0(%rax,%rax,1)
    8d7d:	00 00 00 

0000000000008d80 <key_handler>:
  print_page (current_line);
}

static void
key_handler (game_time t, int val)
{
    8d80:	f3 0f 1e fa          	endbr64 
  switch (val) {
    8d84:	83 ff 07             	cmp    $0x7,%edi
    8d87:	0f 87 e8 00 00 00    	ja     8e75 <key_handler+0xf5>
    8d8d:	48 8d 15 68 7c 00 00 	lea    0x7c68(%rip),%rdx        # 109fc <_IO_stdin_used+0x9fc>
    8d94:	89 ff                	mov    %edi,%edi
    8d96:	48 63 04 ba          	movslq (%rdx,%rdi,4),%rax
    8d9a:	48 01 d0             	add    %rdx,%rax
    8d9d:	3e ff e0             	notrack jmp *%rax
      current_line = 0;
    }
    print_page (current_line);
    break;
  case 5:
    current_line += mb_lines-3;
    8da0:	8b 05 62 65 01 00    	mov    0x16562(%rip),%eax        # 1f308 <current_line>
    8da6:	8b 15 dc 62 01 00    	mov    0x162dc(%rip),%edx        # 1f088 <mb_lines>
    8dac:	8d 7c 02 fd          	lea    -0x3(%rdx,%rax,1),%edi
    if (current_line >= lines_used) {
    8db0:	8b 05 56 65 01 00    	mov    0x16556(%rip),%eax        # 1f30c <lines_used>
    current_line += mb_lines-3;
    8db6:	89 3d 4c 65 01 00    	mov    %edi,0x1654c(%rip)        # 1f308 <current_line>
    if (current_line >= lines_used) {
    8dbc:	39 c7                	cmp    %eax,%edi
    8dbe:	7c 1c                	jl     8ddc <key_handler+0x5c>
      current_line = lines_used-1;
      if (current_line < 0)  current_line = 0;
    8dc0:	83 e8 01             	sub    $0x1,%eax
    8dc3:	0f 89 c7 00 00 00    	jns    8e90 <key_handler+0x110>
    8dc9:	0f 1f 80 00 00 00 00 	nopl   0x0(%rax)
    current_line = 0;
    print_page (current_line);
    break;
  case 7:
    current_line = lines_used-1;
    if (current_line < 0)  current_line = 0;
    8dd0:	c7 05 2e 65 01 00 00 	movl   $0x0,0x1652e(%rip)        # 1f308 <current_line>
    8dd7:	00 00 00 
    8dda:	31 ff                	xor    %edi,%edi
    print_page (current_line);
    8ddc:	e9 6f fe ff ff       	jmp    8c50 <print_page>
    8de1:	0f 1f 80 00 00 00 00 	nopl   0x0(%rax)
    if (current_line < 0)  current_line = 0;
    8de8:	8b 3d 1e 65 01 00    	mov    0x1651e(%rip),%edi        # 1f30c <lines_used>
    8dee:	83 ef 01             	sub    $0x1,%edi
    8df1:	78 dd                	js     8dd0 <key_handler+0x50>
    current_line = lines_used-1;
    8df3:	89 3d 0f 65 01 00    	mov    %edi,0x1650f(%rip)        # 1f308 <current_line>
    8df9:	eb e1                	jmp    8ddc <key_handler+0x5c>
    8dfb:	0f 1f 44 00 00       	nopl   0x0(%rax,%rax,1)
    mode_change (title_mode, 0);
    8e00:	48 8b 3d f1 64 01 00 	mov    0x164f1(%rip),%rdi        # 1f2f8 <title_mode>
    8e07:	31 f6                	xor    %esi,%esi
    8e09:	e9 92 f9 ff ff       	jmp    87a0 <mode_change>
    8e0e:	66 90                	xchg   %ax,%ax
    if (current_line > 0)  --current_line;
    8e10:	8b 3d f2 64 01 00    	mov    0x164f2(%rip),%edi        # 1f308 <current_line>
    8e16:	85 ff                	test   %edi,%edi
    8e18:	7e c2                	jle    8ddc <key_handler+0x5c>
    8e1a:	83 ef 01             	sub    $0x1,%edi
    8e1d:	89 3d e5 64 01 00    	mov    %edi,0x164e5(%rip)        # 1f308 <current_line>
    print_page (current_line);
    8e23:	eb b7                	jmp    8ddc <key_handler+0x5c>
    8e25:	0f 1f 00             	nopl   (%rax)
    if (current_line < lines_used-1)  ++current_line;
    8e28:	8b 05 de 64 01 00    	mov    0x164de(%rip),%eax        # 1f30c <lines_used>
    8e2e:	8b 3d d4 64 01 00    	mov    0x164d4(%rip),%edi        # 1f308 <current_line>
    8e34:	83 e8 01             	sub    $0x1,%eax
    8e37:	39 f8                	cmp    %edi,%eax
    8e39:	7e a1                	jle    8ddc <key_handler+0x5c>
    8e3b:	83 c7 01             	add    $0x1,%edi
    8e3e:	89 3d c4 64 01 00    	mov    %edi,0x164c4(%rip)        # 1f308 <current_line>
    print_page (current_line);
    8e44:	eb 96                	jmp    8ddc <key_handler+0x5c>
    8e46:	66 2e 0f 1f 84 00 00 	cs nopw 0x0(%rax,%rax,1)
    8e4d:	00 00 00 
    if (current_line > mb_lines-3) {
    8e50:	8b 15 32 62 01 00    	mov    0x16232(%rip),%edx        # 1f088 <mb_lines>
    8e56:	8b 05 ac 64 01 00    	mov    0x164ac(%rip),%eax        # 1f308 <current_line>
    8e5c:	8d 4a fe             	lea    -0x2(%rdx),%ecx
    8e5f:	39 c1                	cmp    %eax,%ecx
    8e61:	7f 1d                	jg     8e80 <key_handler+0x100>
      current_line -= mb_lines-3;
    8e63:	83 ea 03             	sub    $0x3,%edx
    8e66:	29 d0                	sub    %edx,%eax
    print_page (current_line);
    8e68:	89 c7                	mov    %eax,%edi
    8e6a:	89 05 98 64 01 00    	mov    %eax,0x16498(%rip)        # 1f308 <current_line>
    8e70:	e9 db fd ff ff       	jmp    8c50 <print_page>
    break;
  }
}
    8e75:	c3                   	ret    
    8e76:	66 2e 0f 1f 84 00 00 	cs nopw 0x0(%rax,%rax,1)
    8e7d:	00 00 00 
    8e80:	31 ff                	xor    %edi,%edi
      current_line = 0;
    8e82:	31 c0                	xor    %eax,%eax
    8e84:	eb e4                	jmp    8e6a <key_handler+0xea>
    8e86:	66 2e 0f 1f 84 00 00 	cs nopw 0x0(%rax,%rax,1)
    8e8d:	00 00 00 
      current_line = lines_used-1;
    8e90:	89 05 72 64 01 00    	mov    %eax,0x16472(%rip)        # 1f308 <current_line>
    print_page (current_line);
    8e96:	89 c7                	mov    %eax,%edi
    8e98:	e9 3f ff ff ff       	jmp    8ddc <key_handler+0x5c>
    8e9d:	0f 1f 00             	nopl   (%rax)

0000000000008ea0 <pager_redraw>:
{
    8ea0:	f3 0f 1e fa          	endbr64 
  mb_lines = LINES;
    8ea4:	8b 05 b6 63 01 00    	mov    0x163b6(%rip),%eax        # 1f260 <LINES@NCURSES6_TINFO_5.0.19991023>
  print_page (current_line);
    8eaa:	8b 3d 58 64 01 00    	mov    0x16458(%rip),%edi        # 1f308 <current_line>
  mb_lines = LINES;
    8eb0:	89 05 d2 61 01 00    	mov    %eax,0x161d2(%rip)        # 1f088 <mb_lines>
  print_page (current_line);
    8eb6:	e9 95 fd ff ff       	jmp    8c50 <print_page>
    8ebb:	0f 1f 44 00 00       	nopl   0x0(%rax,%rax,1)

0000000000008ec0 <pager_leave>:
  }
}

static void
pager_leave (void)
{
    8ec0:	f3 0f 1e fa          	endbr64 
    8ec4:	48 83 ec 08          	sub    $0x8,%rsp
  werase (status);
    8ec8:	48 8b 3d f9 63 01 00 	mov    0x163f9(%rip),%rdi        # 1f2c8 <status>
    8ecf:	e8 cc e8 ff ff       	call   77a0 <werase@plt>
  wnoutrefresh (status);
    8ed4:	48 8b 3d ed 63 01 00 	mov    0x163ed(%rip),%rdi        # 1f2c8 <status>
}
    8edb:	48 83 c4 08          	add    $0x8,%rsp
  wnoutrefresh (status);
    8edf:	e9 ac ea ff ff       	jmp    7990 <wnoutrefresh@plt>
    8ee4:	66 66 2e 0f 1f 84 00 	data16 cs nopw 0x0(%rax,%rax,1)
    8eeb:	00 00 00 00 
    8eef:	90                   	nop

0000000000008ef0 <pager_enter>:
{
    8ef0:	f3 0f 1e fa          	endbr64 
  lines_used = sizeof (copying_lines) / sizeof (const char *);
    8ef4:	c7 05 0e 64 01 00 a2 	movl   $0x2a2,0x1640e(%rip)        # 1f30c <lines_used>
    8efb:	02 00 00 
  switch (what) {
    8efe:	85 ff                	test   %edi,%edi
    8f00:	74 6e                	je     8f70 <pager_enter+0x80>
    8f02:	83 ff 01             	cmp    $0x1,%edi
    8f05:	75 61                	jne    8f68 <pager_enter+0x78>
{
    8f07:	41 55                	push   %r13
      if (strstr (copying_lines[i], "NO WARRANTY")) {
    8f09:	4c 8d 2d 10 44 01 00 	lea    0x14410(%rip),%r13        # 1d320 <copying_lines>
{
    8f10:	41 54                	push   %r12
      if (strstr (copying_lines[i], "NO WARRANTY")) {
    8f12:	4c 8d 25 31 78 00 00 	lea    0x7831(%rip),%r12        # 1074a <_IO_stdin_used+0x74a>
{
    8f19:	55                   	push   %rbp
    8f1a:	53                   	push   %rbx
    current_line = 0;
    8f1b:	bb 01 00 00 00       	mov    $0x1,%ebx
{
    8f20:	48 83 ec 08          	sub    $0x8,%rsp
    current_line = 0;
    8f24:	c7 05 da 63 01 00 00 	movl   $0x0,0x163da(%rip)        # 1f308 <current_line>
    8f2b:	00 00 00 
      if (strstr (copying_lines[i], "NO WARRANTY")) {
    8f2e:	66 90                	xchg   %ax,%ax
    for (i=0; i<lines_used; ++i) {
    8f30:	89 dd                	mov    %ebx,%ebp
    8f32:	48 81 fb a2 02 00 00 	cmp    $0x2a2,%rbx
    8f39:	74 1c                	je     8f57 <pager_enter+0x67>
      if (strstr (copying_lines[i], "NO WARRANTY")) {
    8f3b:	49 8b 7c dd 00       	mov    0x0(%r13,%rbx,8),%rdi
    8f40:	4c 89 e6             	mov    %r12,%rsi
    8f43:	48 83 c3 01          	add    $0x1,%rbx
    8f47:	e8 b4 ea ff ff       	call   7a00 <strstr@plt>
    8f4c:	48 85 c0             	test   %rax,%rax
    8f4f:	74 df                	je     8f30 <pager_enter+0x40>
        current_line = i;
    8f51:	89 2d b1 63 01 00    	mov    %ebp,0x163b1(%rip)        # 1f308 <current_line>
}
    8f57:	48 83 c4 08          	add    $0x8,%rsp
    8f5b:	5b                   	pop    %rbx
    8f5c:	5d                   	pop    %rbp
    8f5d:	41 5c                	pop    %r12
    8f5f:	41 5d                	pop    %r13
    8f61:	c3                   	ret    
    8f62:	66 0f 1f 44 00 00    	nopw   0x0(%rax,%rax,1)
    8f68:	c3                   	ret    
    8f69:	0f 1f 80 00 00 00 00 	nopl   0x0(%rax)
    current_line = 0;
    8f70:	c7 05 8e 63 01 00 00 	movl   $0x0,0x1638e(%rip)        # 1f308 <current_line>
    8f77:	00 00 00 
    break;
    8f7a:	c3                   	ret    
    8f7b:	0f 1f 44 00 00       	nopl   0x0(%rax,%rax,1)

0000000000008f80 <setup_pager_mode>:

void
setup_pager_mode (void)
{
    8f80:	f3 0f 1e fa          	endbr64 
    8f84:	48 83 ec 08          	sub    $0x8,%rsp
  pager_mode = new_mode ();
    8f88:	e8 c3 f6 ff ff       	call   8650 <new_mode>
  pager_mode->enter = pager_enter;
  pager_mode->leave = pager_leave;
  pager_mode->redraw = pager_redraw;
  pager_mode->keypress = key_handler;
  mode_add_key (pager_mode, mbk_end, "quit", 1);
    8f8d:	b9 01 00 00 00       	mov    $0x1,%ecx
    8f92:	be 04 00 00 00       	mov    $0x4,%esi
    8f97:	48 8d 15 52 77 00 00 	lea    0x7752(%rip),%rdx        # 106f0 <_IO_stdin_used+0x6f0>
  pager_mode = new_mode ();
    8f9e:	48 89 c7             	mov    %rax,%rdi
    8fa1:	48 89 05 58 63 01 00 	mov    %rax,0x16358(%rip)        # 1f300 <pager_mode>
  pager_mode->enter = pager_enter;
    8fa8:	48 8d 05 41 ff ff ff 	lea    -0xbf(%rip),%rax        # 8ef0 <pager_enter>
    8faf:	48 89 07             	mov    %rax,(%rdi)
  pager_mode->leave = pager_leave;
    8fb2:	48 8d 05 07 ff ff ff 	lea    -0xf9(%rip),%rax        # 8ec0 <pager_leave>
    8fb9:	48 89 47 08          	mov    %rax,0x8(%rdi)
  pager_mode->redraw = pager_redraw;
    8fbd:	48 8d 05 dc fe ff ff 	lea    -0x124(%rip),%rax        # 8ea0 <pager_redraw>
    8fc4:	48 89 47 10          	mov    %rax,0x10(%rdi)
  pager_mode->keypress = key_handler;
    8fc8:	48 8d 05 b1 fd ff ff 	lea    -0x24f(%rip),%rax        # 8d80 <key_handler>
    8fcf:	48 89 47 30          	mov    %rax,0x30(%rdi)
  mode_add_key (pager_mode, mbk_end, "quit", 1);
    8fd3:	e8 d8 f6 ff ff       	call   86b0 <mode_add_key>
  mode_add_key (pager_mode, mbk_up, "up", 2);
    8fd8:	b9 02 00 00 00       	mov    $0x2,%ecx
    8fdd:	be 00 04 00 00       	mov    $0x400,%esi
    8fe2:	48 8b 3d 17 63 01 00 	mov    0x16317(%rip),%rdi        # 1f300 <pager_mode>
    8fe9:	48 8d 15 69 77 00 00 	lea    0x7769(%rip),%rdx        # 10759 <_IO_stdin_used+0x759>
    8ff0:	e8 bb f6 ff ff       	call   86b0 <mode_add_key>
  mode_add_key (pager_mode, mbk_down, "down", 3);
    8ff5:	b9 03 00 00 00       	mov    $0x3,%ecx
    8ffa:	be 02 00 00 00       	mov    $0x2,%esi
    8fff:	48 8b 3d fa 62 01 00 	mov    0x162fa(%rip),%rdi        # 1f300 <pager_mode>
    9006:	48 8d 15 52 77 00 00 	lea    0x7752(%rip),%rdx        # 1075f <_IO_stdin_used+0x75f>
    900d:	e8 9e f6 ff ff       	call   86b0 <mode_add_key>
  mode_add_key (pager_mode, mbk_pageup, "pg up", 4);
    9012:	b9 04 00 00 00       	mov    $0x4,%ecx
    9017:	be 00 01 00 00       	mov    $0x100,%esi
    901c:	48 8b 3d dd 62 01 00 	mov    0x162dd(%rip),%rdi        # 1f300 <pager_mode>
    9023:	48 8d 15 2c 77 00 00 	lea    0x772c(%rip),%rdx        # 10756 <_IO_stdin_used+0x756>
    902a:	e8 81 f6 ff ff       	call   86b0 <mode_add_key>
  mode_add_key (pager_mode, mbk_pagedown, "pg down", 5);
    902f:	b9 05 00 00 00       	mov    $0x5,%ecx
    9034:	be 80 00 00 00       	mov    $0x80,%esi
    9039:	48 8b 3d c0 62 01 00 	mov    0x162c0(%rip),%rdi        # 1f300 <pager_mode>
    9040:	48 8d 15 15 77 00 00 	lea    0x7715(%rip),%rdx        # 1075c <_IO_stdin_used+0x75c>
    9047:	e8 64 f6 ff ff       	call   86b0 <mode_add_key>
  mode_add_key (pager_mode, mbk_first, "home", 6);
    904c:	b9 06 00 00 00       	mov    $0x6,%ecx
    9051:	be 10 00 00 00       	mov    $0x10,%esi
    9056:	48 8b 3d a3 62 01 00 	mov    0x162a3(%rip),%rdi        # 1f300 <pager_mode>
    905d:	48 8d 15 00 77 00 00 	lea    0x7700(%rip),%rdx        # 10764 <_IO_stdin_used+0x764>
    9064:	e8 47 f6 ff ff       	call   86b0 <mode_add_key>
  mode_add_key (pager_mode, mbk_last, "end", 7);
    9069:	b9 07 00 00 00       	mov    $0x7,%ecx
    906e:	be 40 00 00 00       	mov    $0x40,%esi
    9073:	48 8b 3d 86 62 01 00 	mov    0x16286(%rip),%rdi        # 1f300 <pager_mode>
    907a:	48 8d 15 e8 76 00 00 	lea    0x76e8(%rip),%rdx        # 10769 <_IO_stdin_used+0x769>
    9081:	e8 2a f6 ff ff       	call   86b0 <mode_add_key>
  mode_complete (pager_mode);
    9086:	48 8b 3d 73 62 01 00 	mov    0x16273(%rip),%rdi        # 1f300 <pager_mode>
}
    908d:	48 83 c4 08          	add    $0x8,%rsp
  mode_complete (pager_mode);
    9091:	e9 9a f6 ff ff       	jmp    8730 <mode_complete>
    9096:	66 2e 0f 1f 84 00 00 	cs nopw 0x0(%rax,%rax,1)
    909d:	00 00 00 

00000000000090a0 <game_leave>:
  start_scrolling (1);
}

static void
game_leave (void)
{
    90a0:	f3 0f 1e fa          	endbr64 
    90a4:	48 83 ec 08          	sub    $0x8,%rsp
  --lives;
    90a8:	83 2d 81 62 01 00 01 	subl   $0x1,0x16281(%rip)        # 1f330 <lives>
  level = current_level ();
    90af:	e8 3c 15 00 00       	call   a5f0 <current_level>
    90b4:	89 05 7a 62 01 00    	mov    %eax,0x1627a(%rip)        # 1f334 <level>
  extinguish_laser ();
    90ba:	e8 71 25 00 00       	call   b630 <extinguish_laser>
  remove_meteors ();
}
    90bf:	48 83 c4 08          	add    $0x8,%rsp
  remove_meteors ();
    90c3:	e9 48 29 00 00       	jmp    ba10 <remove_meteors>
    90c8:	0f 1f 84 00 00 00 00 	nopl   0x0(%rax,%rax,1)
    90cf:	00 

00000000000090d0 <game_enter>:
{
    90d0:	f3 0f 1e fa          	endbr64 
    90d4:	53                   	push   %rbx
    90d5:	89 fb                	mov    %edi,%ebx
  clock_reset ();
    90d7:	e8 44 47 00 00       	call   d820 <clock_reset>
  if (seed == 0) {
    90dc:	85 db                	test   %ebx,%ebx
    90de:	74 40                	je     9120 <game_enter+0x50>
  resize_ground (1);
    90e0:	bf 01 00 00 00       	mov    $0x1,%edi
    90e5:	e8 36 15 00 00       	call   a620 <resize_ground>
  level_start (level);
    90ea:	8b 3d 44 62 01 00    	mov    0x16244(%rip),%edi        # 1f334 <level>
    90f0:	e8 8b 12 00 00       	call   a380 <level_start>
  crash_detected = 0;
    90f5:	c7 05 15 62 01 00 00 	movl   $0x0,0x16215(%rip)        # 1f314 <crash_detected>
    90fc:	00 00 00 
  stakes = 0;
    90ff:	c7 05 07 62 01 00 00 	movl   $0x0,0x16207(%rip)        # 1f310 <stakes>
    9106:	00 00 00 
  initialise_buggy ();
    9109:	e8 b2 19 00 00       	call   aac0 <initialise_buggy>
  start_scrolling (1);
    910e:	f2 0f 10 05 8a 06 01 	movsd  0x1068a(%rip),%xmm0        # 197a0 <_IO_stdin_used+0x97a0>
    9115:	00 
}
    9116:	5b                   	pop    %rbx
  start_scrolling (1);
    9117:	e9 24 18 00 00       	jmp    a940 <start_scrolling>
    911c:	0f 1f 40 00          	nopl   0x0(%rax)
    werase (status);
    9120:	48 8b 3d a1 61 01 00 	mov    0x161a1(%rip),%rdi        # 1f2c8 <status>
    level = 0;
    9127:	c7 05 03 62 01 00 00 	movl   $0x0,0x16203(%rip)        # 1f334 <level>
    912e:	00 00 00 
    score = 0;
    9131:	c7 05 f1 61 01 00 00 	movl   $0x0,0x161f1(%rip)        # 1f32c <score>
    9138:	00 00 00 
    lives = 3;
    913b:	c7 05 eb 61 01 00 03 	movl   $0x3,0x161eb(%rip)        # 1f330 <lives>
    9142:	00 00 00 
    werase (status);
    9145:	e8 56 e6 ff ff       	call   77a0 <werase@plt>
    wnoutrefresh (status);
    914a:	48 8b 3d 77 61 01 00 	mov    0x16177(%rip),%rdi        # 1f2c8 <status>
    9151:	e8 3a e8 ff ff       	call   7990 <wnoutrefresh@plt>
    9156:	eb 88                	jmp    90e0 <game_enter+0x10>
    9158:	0f 1f 84 00 00 00 00 	nopl   0x0(%rax,%rax,1)
    915f:	00 

0000000000009160 <leave_crash_mode>:
static void
leave_crash_mode (game_time t, void *client_data)
/* This function is a possible callback argument to `add_event'.
 * It switch control back to either `game_mode' or `highscore_mode'.
 * The arguments T and CLIENT_DATA are ignored.  */
{
    9160:	f3 0f 1e fa          	endbr64 
  if (lives > 0) {
    9164:	8b 05 c6 61 01 00    	mov    0x161c6(%rip),%eax        # 1f330 <lives>
    916a:	85 c0                	test   %eax,%eax
    916c:	7e 12                	jle    9180 <leave_crash_mode+0x20>
    mode_change (game_mode, 1);
    916e:	48 8b 3d ab 61 01 00 	mov    0x161ab(%rip),%rdi        # 1f320 <game_mode>
    9175:	be 01 00 00 00       	mov    $0x1,%esi
    917a:	e9 21 f6 ff ff       	jmp    87a0 <mode_change>
    917f:	90                   	nop
{
    9180:	48 83 ec 08          	sub    $0x8,%rsp
  } else {
    score_set (score, level+1);
    9184:	8b 05 aa 61 01 00    	mov    0x161aa(%rip),%eax        # 1f334 <level>
    918a:	8b 3d 9c 61 01 00    	mov    0x1619c(%rip),%edi        # 1f32c <score>
    9190:	8d 70 01             	lea    0x1(%rax),%esi
    9193:	e8 a8 41 00 00       	call   d340 <score_set>
    mode_change (highscore_mode, 0);
    9198:	48 8b 3d 41 62 01 00 	mov    0x16241(%rip),%rdi        # 1f3e0 <highscore_mode>
    919f:	31 f6                	xor    %esi,%esi
  }
}
    91a1:	48 83 c4 08          	add    $0x8,%rsp
    mode_change (highscore_mode, 0);
    91a5:	e9 f6 f5 ff ff       	jmp    87a0 <mode_change>
    91aa:	66 0f 1f 44 00 00    	nopw   0x0(%rax,%rax,1)

00000000000091b0 <signal_handler>:
{
    91b0:	f3 0f 1e fa          	endbr64 
  switch (signum) {
    91b4:	83 ff 12             	cmp    $0x12,%edi
    91b7:	74 2c                	je     91e5 <signal_handler+0x35>
    91b9:	83 ff 14             	cmp    $0x14,%edi
    91bc:	75 3a                	jne    91f8 <signal_handler+0x48>
    if (lives > 1)  lives = 1;
    91be:	83 3d 6b 61 01 00 01 	cmpl   $0x1,0x1616b(%rip)        # 1f330 <lives>
    91c5:	7e 0a                	jle    91d1 <signal_handler+0x21>
    91c7:	c7 05 5f 61 01 00 01 	movl   $0x1,0x1615f(%rip)        # 1f330 <lives>
    91ce:	00 00 00 
    if (! crash_detected)  crash_detected = 1;
    91d1:	8b 05 3d 61 01 00    	mov    0x1613d(%rip),%eax        # 1f314 <crash_detected>
    91d7:	85 c0                	test   %eax,%eax
    91d9:	75 0a                	jne    91e5 <signal_handler+0x35>
    91db:	c7 05 2f 61 01 00 01 	movl   $0x1,0x1612f(%rip)        # 1f314 <crash_detected>
    91e2:	00 00 00 
    print_message ("GAME OVER (suspended)");
    91e5:	48 8d 3d 44 05 01 00 	lea    0x10544(%rip),%rdi        # 19730 <_IO_stdin_used+0x9730>
    91ec:	e9 af f1 ff ff       	jmp    83a0 <print_message>
    91f1:	0f 1f 80 00 00 00 00 	nopl   0x0(%rax)
}
    91f8:	c3                   	ret    
    91f9:	0f 1f 80 00 00 00 00 	nopl   0x0(%rax)

0000000000009200 <key_handler>:
{
    9200:	f3 0f 1e fa          	endbr64 
  switch (val) {
    9204:	83 ff 02             	cmp    $0x2,%edi
    9207:	74 17                	je     9220 <key_handler+0x20>
{
    9209:	48 83 ec 18          	sub    $0x18,%rsp
  switch (val) {
    920d:	83 ff 03             	cmp    $0x3,%edi
    9210:	74 4e                	je     9260 <key_handler+0x60>
    9212:	83 ff 01             	cmp    $0x1,%edi
    9215:	74 19                	je     9230 <key_handler+0x30>
}
    9217:	48 83 c4 18          	add    $0x18,%rsp
    921b:	c3                   	ret    
    921c:	0f 1f 40 00          	nopl   0x0(%rax)
    if (! crash_detected)  fire_laser (t);
    9220:	8b 05 ee 60 01 00    	mov    0x160ee(%rip),%eax        # 1f314 <crash_detected>
    9226:	85 c0                	test   %eax,%eax
    9228:	74 66                	je     9290 <key_handler+0x90>
    922a:	c3                   	ret    
    922b:	0f 1f 44 00 00       	nopl   0x0(%rax,%rax,1)
    if (! crash_detected && can_jump())  jump (t);
    9230:	8b 15 de 60 01 00    	mov    0x160de(%rip),%edx        # 1f314 <crash_detected>
    9236:	85 d2                	test   %edx,%edx
    9238:	75 dd                	jne    9217 <key_handler+0x17>
    923a:	f2 0f 11 44 24 08    	movsd  %xmm0,0x8(%rsp)
    9240:	e8 ab 1d 00 00       	call   aff0 <can_jump>
    9245:	f2 0f 10 44 24 08    	movsd  0x8(%rsp),%xmm0
    924b:	85 c0                	test   %eax,%eax
    924d:	74 c8                	je     9217 <key_handler+0x17>
}
    924f:	48 83 c4 18          	add    $0x18,%rsp
    if (! crash_detected && can_jump())  jump (t);
    9253:	e9 28 1d 00 00       	jmp    af80 <jump>
    9258:	0f 1f 84 00 00 00 00 	nopl   0x0(%rax,%rax,1)
    925f:	00 
    print_message ("aborted at user's request");
    9260:	48 8d 3d df 04 01 00 	lea    0x104df(%rip),%rdi        # 19746 <_IO_stdin_used+0x9746>
    lives = 1;
    9267:	c7 05 bf 60 01 00 01 	movl   $0x1,0x160bf(%rip)        # 1f330 <lives>
    926e:	00 00 00 
    print_message ("aborted at user's request");
    9271:	e8 2a f1 ff ff       	call   83a0 <print_message>
    mode_change (crash_mode, 0);
    9276:	48 8b 3d 9b 60 01 00 	mov    0x1609b(%rip),%rdi        # 1f318 <crash_mode>
    927d:	31 f6                	xor    %esi,%esi
}
    927f:	48 83 c4 18          	add    $0x18,%rsp
    mode_change (crash_mode, 0);
    9283:	e9 18 f5 ff ff       	jmp    87a0 <mode_change>
    9288:	0f 1f 84 00 00 00 00 	nopl   0x0(%rax,%rax,1)
    928f:	00 
    if (! crash_detected)  fire_laser (t);
    9290:	e9 8b 22 00 00       	jmp    b520 <fire_laser>
    9295:	66 66 2e 0f 1f 84 00 	data16 cs nopw 0x0(%rax,%rax,1)
    929c:	00 00 00 00 

00000000000092a0 <crash_key_handler>:
  if (lives_flag)  print_lives ();
}

static void
crash_key_handler (game_time t, int val)
{
    92a0:	f3 0f 1e fa          	endbr64 
  if (t < 0.5)  return;
    92a4:	f2 0f 10 0d 7c 74 00 	movsd  0x747c(%rip),%xmm1        # 10728 <_IO_stdin_used+0x728>
    92ab:	00 
    92ac:	66 0f 2f c8          	comisd %xmm0,%xmm1
    92b0:	77 6e                	ja     9320 <crash_key_handler+0x80>
{
    92b2:	48 83 ec 08          	sub    $0x8,%rsp

  switch (val) {
    92b6:	83 ff 01             	cmp    $0x1,%edi
    92b9:	74 3d                	je     92f8 <crash_key_handler+0x58>
    92bb:	83 ff 03             	cmp    $0x3,%edi
    92be:	75 30                	jne    92f0 <crash_key_handler+0x50>
  case 1:
    leave_crash_mode (0, NULL);
    break;
  case 3:
    lives = 0;
    92c0:	c7 05 66 60 01 00 00 	movl   $0x0,0x16066(%rip)        # 1f330 <lives>
    92c7:	00 00 00 
    score_set (score, level+1);
    92ca:	8b 05 64 60 01 00    	mov    0x16064(%rip),%eax        # 1f334 <level>
    92d0:	8b 3d 56 60 01 00    	mov    0x16056(%rip),%edi        # 1f32c <score>
    92d6:	8d 70 01             	lea    0x1(%rax),%esi
    92d9:	e8 62 40 00 00       	call   d340 <score_set>
    mode_change (highscore_mode, 0);
    92de:	48 8b 3d fb 60 01 00 	mov    0x160fb(%rip),%rdi        # 1f3e0 <highscore_mode>
    92e5:	31 f6                	xor    %esi,%esi
    leave_crash_mode (0, NULL);
    break;
  }
}
    92e7:	48 83 c4 08          	add    $0x8,%rsp
    mode_change (highscore_mode, 0);
    92eb:	e9 b0 f4 ff ff       	jmp    87a0 <mode_change>
}
    92f0:	48 83 c4 08          	add    $0x8,%rsp
    92f4:	c3                   	ret    
    92f5:	0f 1f 00             	nopl   (%rax)
  if (lives > 0) {
    92f8:	8b 05 32 60 01 00    	mov    0x16032(%rip),%eax        # 1f330 <lives>
    92fe:	85 c0                	test   %eax,%eax
    9300:	7e c8                	jle    92ca <crash_key_handler+0x2a>
    mode_change (game_mode, 1);
    9302:	48 8b 3d 17 60 01 00 	mov    0x16017(%rip),%rdi        # 1f320 <game_mode>
    9309:	be 01 00 00 00       	mov    $0x1,%esi
}
    930e:	48 83 c4 08          	add    $0x8,%rsp
    mode_change (game_mode, 1);
    9312:	e9 89 f4 ff ff       	jmp    87a0 <mode_change>
    9317:	66 0f 1f 84 00 00 00 	nopw   0x0(%rax,%rax,1)
    931e:	00 00 
    9320:	c3                   	ret    
    9321:	66 66 2e 0f 1f 84 00 	data16 cs nopw 0x0(%rax,%rax,1)
    9328:	00 00 00 00 
    932c:	0f 1f 40 00          	nopl   0x0(%rax)

0000000000009330 <print_lives_h>:
{
    9330:	f3 0f 1e fa          	endbr64 
    9334:	48 83 ec 08          	sub    $0x8,%rsp
  mvwprintw (status, 0, car_base-20, "lives: %d", lives);
    9338:	8b 05 7a 5f 01 00    	mov    0x15f7a(%rip),%eax        # 1f2b8 <car_base>
    933e:	31 f6                	xor    %esi,%esi
    9340:	44 8b 05 e9 5f 01 00 	mov    0x15fe9(%rip),%r8d        # 1f330 <lives>
    9347:	48 8b 3d 7a 5f 01 00 	mov    0x15f7a(%rip),%rdi        # 1f2c8 <status>
    934e:	48 8d 0d 0b 04 01 00 	lea    0x1040b(%rip),%rcx        # 19760 <_IO_stdin_used+0x9760>
    9355:	8d 50 ec             	lea    -0x14(%rax),%edx
    9358:	31 c0                	xor    %eax,%eax
    935a:	e8 a1 e4 ff ff       	call   7800 <mvwprintw@plt>
  wnoutrefresh (status);
    935f:	48 8b 3d 62 5f 01 00 	mov    0x15f62(%rip),%rdi        # 1f2c8 <status>
    9366:	e8 25 e6 ff ff       	call   7990 <wnoutrefresh@plt>
  lives_flag = 1;
    936b:	c7 05 b3 5f 01 00 01 	movl   $0x1,0x15fb3(%rip)        # 1f328 <lives_flag>
    9372:	00 00 00 
}
    9375:	48 83 c4 08          	add    $0x8,%rsp
    9379:	c3                   	ret    
    937a:	66 0f 1f 44 00 00    	nopw   0x0(%rax,%rax,1)

0000000000009380 <game_redraw>:
{
    9380:	f3 0f 1e fa          	endbr64 
    9384:	48 83 ec 08          	sub    $0x8,%rsp
  resize_meteors ();
    9388:	e8 23 2a 00 00       	call   bdb0 <resize_meteors>
  resize_laser ();
    938d:	e8 be 23 00 00       	call   b750 <resize_laser>
  resize_ground (0);
    9392:	31 ff                	xor    %edi,%edi
    9394:	e8 87 12 00 00       	call   a620 <resize_ground>
  print_ground ();
    9399:	e8 72 13 00 00       	call   a710 <print_ground>
  if (crash_detected)  return;
    939e:	8b 05 70 5f 01 00    	mov    0x15f70(%rip),%eax        # 1f314 <crash_detected>
    93a4:	85 c0                	test   %eax,%eax
    93a6:	75 33                	jne    93db <game_redraw+0x5b>
  mvwprintw (status, 0, car_base-7, "score: %-8d", score);
    93a8:	8b 05 0a 5f 01 00    	mov    0x15f0a(%rip),%eax        # 1f2b8 <car_base>
    93ae:	48 8b 3d 13 5f 01 00 	mov    0x15f13(%rip),%rdi        # 1f2c8 <status>
    93b5:	48 8d 0d ae 03 01 00 	lea    0x103ae(%rip),%rcx        # 1976a <_IO_stdin_used+0x976a>
    93bc:	31 f6                	xor    %esi,%esi
    93be:	44 8b 05 67 5f 01 00 	mov    0x15f67(%rip),%r8d        # 1f32c <score>
    93c5:	8d 50 f9             	lea    -0x7(%rax),%edx
    93c8:	31 c0                	xor    %eax,%eax
    93ca:	e8 31 e4 ff ff       	call   7800 <mvwprintw@plt>
  wnoutrefresh (status);
    93cf:	48 8b 3d f2 5e 01 00 	mov    0x15ef2(%rip),%rdi        # 1f2c8 <status>
    93d6:	e8 b5 e5 ff ff       	call   7990 <wnoutrefresh@plt>
  mvwprintw (status, 0, car_base-20, "lives: %d", lives);
    93db:	8b 05 d7 5e 01 00    	mov    0x15ed7(%rip),%eax        # 1f2b8 <car_base>
    93e1:	44 8b 05 48 5f 01 00 	mov    0x15f48(%rip),%r8d        # 1f330 <lives>
    93e8:	48 8d 0d 71 03 01 00 	lea    0x10371(%rip),%rcx        # 19760 <_IO_stdin_used+0x9760>
    93ef:	31 f6                	xor    %esi,%esi
    93f1:	48 8b 3d d0 5e 01 00 	mov    0x15ed0(%rip),%rdi        # 1f2c8 <status>
    93f8:	8d 50 ec             	lea    -0x14(%rax),%edx
    93fb:	31 c0                	xor    %eax,%eax
    93fd:	e8 fe e3 ff ff       	call   7800 <mvwprintw@plt>
  wnoutrefresh (status);
    9402:	48 8b 3d bf 5e 01 00 	mov    0x15ebf(%rip),%rdi        # 1f2c8 <status>
    9409:	e8 82 e5 ff ff       	call   7990 <wnoutrefresh@plt>
}
    940e:	48 83 c4 08          	add    $0x8,%rsp
  print_buggy ();
    9412:	e9 39 17 00 00       	jmp    ab50 <print_buggy>
    9417:	66 0f 1f 84 00 00 00 	nopw   0x0(%rax,%rax,1)
    941e:	00 00 

0000000000009420 <crash_redraw>:
{
    9420:	f3 0f 1e fa          	endbr64 
    9424:	48 83 ec 08          	sub    $0x8,%rsp
  resize_ground (0);
    9428:	31 ff                	xor    %edi,%edi
    942a:	e8 f1 11 00 00       	call   a620 <resize_ground>
  print_ground ();
    942f:	e8 dc 12 00 00       	call   a710 <print_ground>
  print_buggy ();
    9434:	e8 17 17 00 00       	call   ab50 <print_buggy>
  if (crash_detected)  return;
    9439:	8b 15 d5 5e 01 00    	mov    0x15ed5(%rip),%edx        # 1f314 <crash_detected>
    943f:	85 d2                	test   %edx,%edx
    9441:	75 33                	jne    9476 <crash_redraw+0x56>
  mvwprintw (status, 0, car_base-7, "score: %-8d", score);
    9443:	8b 05 6f 5e 01 00    	mov    0x15e6f(%rip),%eax        # 1f2b8 <car_base>
    9449:	48 8b 3d 78 5e 01 00 	mov    0x15e78(%rip),%rdi        # 1f2c8 <status>
    9450:	48 8d 0d 13 03 01 00 	lea    0x10313(%rip),%rcx        # 1976a <_IO_stdin_used+0x976a>
    9457:	31 f6                	xor    %esi,%esi
    9459:	44 8b 05 cc 5e 01 00 	mov    0x15ecc(%rip),%r8d        # 1f32c <score>
    9460:	8d 50 f9             	lea    -0x7(%rax),%edx
    9463:	31 c0                	xor    %eax,%eax
    9465:	e8 96 e3 ff ff       	call   7800 <mvwprintw@plt>
  wnoutrefresh (status);
    946a:	48 8b 3d 57 5e 01 00 	mov    0x15e57(%rip),%rdi        # 1f2c8 <status>
    9471:	e8 1a e5 ff ff       	call   7990 <wnoutrefresh@plt>
  if (lives_flag)  print_lives ();
    9476:	8b 05 ac 5e 01 00    	mov    0x15eac(%rip),%eax        # 1f328 <lives_flag>
    947c:	85 c0                	test   %eax,%eax
    947e:	75 08                	jne    9488 <crash_redraw+0x68>
}
    9480:	48 83 c4 08          	add    $0x8,%rsp
    9484:	c3                   	ret    
    9485:	0f 1f 00             	nopl   (%rax)
  mvwprintw (status, 0, car_base-20, "lives: %d", lives);
    9488:	8b 05 2a 5e 01 00    	mov    0x15e2a(%rip),%eax        # 1f2b8 <car_base>
    948e:	48 8b 3d 33 5e 01 00 	mov    0x15e33(%rip),%rdi        # 1f2c8 <status>
    9495:	48 8d 0d c4 02 01 00 	lea    0x102c4(%rip),%rcx        # 19760 <_IO_stdin_used+0x9760>
    949c:	31 f6                	xor    %esi,%esi
    949e:	44 8b 05 8b 5e 01 00 	mov    0x15e8b(%rip),%r8d        # 1f330 <lives>
    94a5:	8d 50 ec             	lea    -0x14(%rax),%edx
    94a8:	31 c0                	xor    %eax,%eax
    94aa:	e8 51 e3 ff ff       	call   7800 <mvwprintw@plt>
  wnoutrefresh (status);
    94af:	48 8b 3d 12 5e 01 00 	mov    0x15e12(%rip),%rdi        # 1f2c8 <status>
}
    94b6:	48 83 c4 08          	add    $0x8,%rsp
  wnoutrefresh (status);
    94ba:	e9 d1 e4 ff ff       	jmp    7990 <wnoutrefresh@plt>
    94bf:	90                   	nop

00000000000094c0 <adjust_score>:
{
    94c0:	f3 0f 1e fa          	endbr64 
  if (crash_detected)  return;
    94c4:	8b 05 4a 5e 01 00    	mov    0x15e4a(%rip),%eax        # 1f314 <crash_detected>
    94ca:	85 c0                	test   %eax,%eax
    94cc:	74 02                	je     94d0 <adjust_score+0x10>
    94ce:	c3                   	ret    
    94cf:	90                   	nop
{
    94d0:	48 83 ec 08          	sub    $0x8,%rsp
  score += val;
    94d4:	03 3d 52 5e 01 00    	add    0x15e52(%rip),%edi        # 1f32c <score>
  mvwprintw (status, 0, car_base-7, "score: %-8d", score);
    94da:	8b 05 d8 5d 01 00    	mov    0x15dd8(%rip),%eax        # 1f2b8 <car_base>
    94e0:	31 f6                	xor    %esi,%esi
  score += val;
    94e2:	89 3d 44 5e 01 00    	mov    %edi,0x15e44(%rip)        # 1f32c <score>
    94e8:	41 89 f8             	mov    %edi,%r8d
  mvwprintw (status, 0, car_base-7, "score: %-8d", score);
    94eb:	48 8b 3d d6 5d 01 00 	mov    0x15dd6(%rip),%rdi        # 1f2c8 <status>
    94f2:	48 8d 0d 71 02 01 00 	lea    0x10271(%rip),%rcx        # 1976a <_IO_stdin_used+0x976a>
    94f9:	8d 50 f9             	lea    -0x7(%rax),%edx
    94fc:	31 c0                	xor    %eax,%eax
    94fe:	e8 fd e2 ff ff       	call   7800 <mvwprintw@plt>
  wnoutrefresh (status);
    9503:	48 8b 3d be 5d 01 00 	mov    0x15dbe(%rip),%rdi        # 1f2c8 <status>
}
    950a:	48 83 c4 08          	add    $0x8,%rsp
  wnoutrefresh (status);
    950e:	e9 7d e4 ff ff       	jmp    7990 <wnoutrefresh@plt>
    9513:	66 66 2e 0f 1f 84 00 	data16 cs nopw 0x0(%rax,%rax,1)
    951a:	00 00 00 00 
    951e:	66 90                	xchg   %ax,%ax

0000000000009520 <print_lives>:
{
    9520:	f3 0f 1e fa          	endbr64 
    9524:	48 83 ec 08          	sub    $0x8,%rsp
  mvwprintw (status, 0, car_base-20, "lives: %d", lives);
    9528:	8b 05 8a 5d 01 00    	mov    0x15d8a(%rip),%eax        # 1f2b8 <car_base>
    952e:	31 f6                	xor    %esi,%esi
    9530:	48 8b 3d 91 5d 01 00 	mov    0x15d91(%rip),%rdi        # 1f2c8 <status>
    9537:	44 8b 05 f2 5d 01 00 	mov    0x15df2(%rip),%r8d        # 1f330 <lives>
    953e:	48 8d 0d 1b 02 01 00 	lea    0x1021b(%rip),%rcx        # 19760 <_IO_stdin_used+0x9760>
    9545:	8d 50 ec             	lea    -0x14(%rax),%edx
    9548:	31 c0                	xor    %eax,%eax
    954a:	e8 b1 e2 ff ff       	call   7800 <mvwprintw@plt>
  wnoutrefresh (status);
    954f:	48 8b 3d 72 5d 01 00 	mov    0x15d72(%rip),%rdi        # 1f2c8 <status>
}
    9556:	48 83 c4 08          	add    $0x8,%rsp
  wnoutrefresh (status);
    955a:	e9 31 e4 ff ff       	jmp    7990 <wnoutrefresh@plt>
    955f:	90                   	nop

0000000000009560 <print_game_over>:
{
    9560:	f3 0f 1e fa          	endbr64 
    9564:	41 89 f8             	mov    %edi,%r8d
    9567:	48 83 ec 08          	sub    $0x8,%rsp
  if (blink)  wattron (moon, A_BLINK);
    956b:	48 8b 3d 5e 5d 01 00 	mov    0x15d5e(%rip),%rdi        # 1f2d0 <moon>
    9572:	45 85 c0             	test   %r8d,%r8d
    9575:	75 59                	jne    95d0 <print_game_over+0x70>
  mvwaddstr (moon, LINES-11, car_base-1, "GAME OVER");
    9577:	8b 05 3b 5d 01 00    	mov    0x15d3b(%rip),%eax        # 1f2b8 <car_base>
    957d:	8d 50 ff             	lea    -0x1(%rax),%edx
    9580:	8b 05 da 5c 01 00    	mov    0x15cda(%rip),%eax        # 1f260 <LINES@NCURSES6_TINFO_5.0.19991023>
    9586:	8d 70 f5             	lea    -0xb(%rax),%esi
    9589:	e8 12 e5 ff ff       	call   7aa0 <wmove@plt>
    958e:	83 f8 ff             	cmp    $0xffffffff,%eax
    9591:	75 15                	jne    95a8 <print_game_over+0x48>
  wnoutrefresh (moon);
    9593:	48 8b 3d 36 5d 01 00 	mov    0x15d36(%rip),%rdi        # 1f2d0 <moon>
}
    959a:	48 83 c4 08          	add    $0x8,%rsp
  wnoutrefresh (moon);
    959e:	e9 ed e3 ff ff       	jmp    7990 <wnoutrefresh@plt>
    95a3:	0f 1f 44 00 00       	nopl   0x0(%rax,%rax,1)
  mvwaddstr (moon, LINES-11, car_base-1, "GAME OVER");
    95a8:	48 8b 3d 21 5d 01 00 	mov    0x15d21(%rip),%rdi        # 1f2d0 <moon>
    95af:	ba ff ff ff ff       	mov    $0xffffffff,%edx
    95b4:	48 8d 35 bb 01 01 00 	lea    0x101bb(%rip),%rsi        # 19776 <_IO_stdin_used+0x9776>
    95bb:	e8 50 e5 ff ff       	call   7b10 <waddnstr@plt>
  wnoutrefresh (moon);
    95c0:	48 8b 3d 09 5d 01 00 	mov    0x15d09(%rip),%rdi        # 1f2d0 <moon>
}
    95c7:	48 83 c4 08          	add    $0x8,%rsp
  wnoutrefresh (moon);
    95cb:	e9 c0 e3 ff ff       	jmp    7990 <wnoutrefresh@plt>
  if (blink)  wattron (moon, A_BLINK);
    95d0:	31 d2                	xor    %edx,%edx
    95d2:	be 00 00 08 00       	mov    $0x80000,%esi
    95d7:	e8 14 e6 ff ff       	call   7bf0 <wattr_on@plt>
  mvwaddstr (moon, LINES-11, car_base-1, "GAME OVER");
    95dc:	8b 05 d6 5c 01 00    	mov    0x15cd6(%rip),%eax        # 1f2b8 <car_base>
    95e2:	48 8b 3d e7 5c 01 00 	mov    0x15ce7(%rip),%rdi        # 1f2d0 <moon>
    95e9:	8d 50 ff             	lea    -0x1(%rax),%edx
    95ec:	8b 05 6e 5c 01 00    	mov    0x15c6e(%rip),%eax        # 1f260 <LINES@NCURSES6_TINFO_5.0.19991023>
    95f2:	8d 70 f5             	lea    -0xb(%rax),%esi
    95f5:	e8 a6 e4 ff ff       	call   7aa0 <wmove@plt>
    95fa:	83 f8 ff             	cmp    $0xffffffff,%eax
    95fd:	75 29                	jne    9628 <print_game_over+0xc8>
  if (blink)  wattroff (moon, A_BLINK);
    95ff:	48 8b 3d ca 5c 01 00 	mov    0x15cca(%rip),%rdi        # 1f2d0 <moon>
    9606:	31 d2                	xor    %edx,%edx
    9608:	be 00 00 08 00       	mov    $0x80000,%esi
    960d:	e8 5e e1 ff ff       	call   7770 <wattr_off@plt>
  wnoutrefresh (moon);
    9612:	48 8b 3d b7 5c 01 00 	mov    0x15cb7(%rip),%rdi        # 1f2d0 <moon>
}
    9619:	48 83 c4 08          	add    $0x8,%rsp
  wnoutrefresh (moon);
    961d:	e9 6e e3 ff ff       	jmp    7990 <wnoutrefresh@plt>
    9622:	66 0f 1f 44 00 00    	nopw   0x0(%rax,%rax,1)
  mvwaddstr (moon, LINES-11, car_base-1, "GAME OVER");
    9628:	48 8b 3d a1 5c 01 00 	mov    0x15ca1(%rip),%rdi        # 1f2d0 <moon>
    962f:	ba ff ff ff ff       	mov    $0xffffffff,%edx
    9634:	48 8d 35 3b 01 01 00 	lea    0x1013b(%rip),%rsi        # 19776 <_IO_stdin_used+0x9776>
    963b:	e8 d0 e4 ff ff       	call   7b10 <waddnstr@plt>
  if (blink)  wattroff (moon, A_BLINK);
    9640:	eb bd                	jmp    95ff <print_game_over+0x9f>
    9642:	66 66 2e 0f 1f 84 00 	data16 cs nopw 0x0(%rax,%rax,1)
    9649:	00 00 00 00 
    964d:	0f 1f 00             	nopl   (%rax)

0000000000009650 <crash_enter>:
{
    9650:	f3 0f 1e fa          	endbr64 
    9654:	48 83 ec 08          	sub    $0x8,%rsp
  clock_reset ();
    9658:	e8 c3 41 00 00       	call   d820 <clock_reset>
  add_event (1.2, print_lives_h, NULL);
    965d:	f2 0f 10 05 43 01 01 	movsd  0x10143(%rip),%xmm0        # 197a8 <_IO_stdin_used+0x97a8>
    9664:	00 
    9665:	31 f6                	xor    %esi,%esi
    9667:	48 8d 3d c2 fc ff ff 	lea    -0x33e(%rip),%rdi        # 9330 <print_lives_h>
  lives_flag = 0;
    966e:	c7 05 b0 5c 01 00 00 	movl   $0x0,0x15cb0(%rip)        # 1f328 <lives_flag>
    9675:	00 00 00 
  add_event (1.2, print_lives_h, NULL);
    9678:	e8 f3 43 00 00       	call   da70 <add_event>
  add_event (2.0, leave_crash_mode, NULL);
    967d:	f2 0f 10 05 2b 01 01 	movsd  0x1012b(%rip),%xmm0        # 197b0 <_IO_stdin_used+0x97b0>
    9684:	00 
    9685:	31 f6                	xor    %esi,%esi
    9687:	48 8d 3d d2 fa ff ff 	lea    -0x52e(%rip),%rdi        # 9160 <leave_crash_mode>
    968e:	e8 dd 43 00 00       	call   da70 <add_event>
  print_buggy ();
    9693:	e8 b8 14 00 00       	call   ab50 <print_buggy>
  if (lives <= 0)  print_game_over (1);
    9698:	8b 05 92 5c 01 00    	mov    0x15c92(%rip),%eax        # 1f330 <lives>
    969e:	85 c0                	test   %eax,%eax
    96a0:	7e 0e                	jle    96b0 <crash_enter+0x60>
}
    96a2:	48 83 c4 08          	add    $0x8,%rsp
    96a6:	c3                   	ret    
    96a7:	66 0f 1f 84 00 00 00 	nopw   0x0(%rax,%rax,1)
    96ae:	00 00 
  if (lives <= 0)  print_game_over (1);
    96b0:	bf 01 00 00 00       	mov    $0x1,%edi
}
    96b5:	48 83 c4 08          	add    $0x8,%rsp
  if (lives <= 0)  print_game_over (1);
    96b9:	e9 a2 fe ff ff       	jmp    9560 <print_game_over>
    96be:	66 90                	xchg   %ax,%ax

00000000000096c0 <setup_game_mode>:

void
setup_game_mode (void)
{
    96c0:	f3 0f 1e fa          	endbr64 
    96c4:	41 54                	push   %r12
  game_mode->redraw = game_redraw;
  game_mode->keypress = key_handler;
  game_mode->signal = signal_handler;
  mode_add_key (game_mode, mbk_jump, "jump", 1);
  mode_add_key (game_mode, mbk_fire, "fire", 2);
  mode_add_key (game_mode, mbk_end, "abort game", 3);
    96c6:	4c 8d 25 bd 00 01 00 	lea    0x100bd(%rip),%r12        # 1978a <_IO_stdin_used+0x978a>
  game_mode = new_mode ();
    96cd:	e8 7e ef ff ff       	call   8650 <new_mode>
  mode_add_key (game_mode, mbk_jump, "jump", 1);
    96d2:	b9 01 00 00 00       	mov    $0x1,%ecx
    96d7:	be 20 00 00 00       	mov    $0x20,%esi
    96dc:	48 8d 15 9d 00 01 00 	lea    0x1009d(%rip),%rdx        # 19780 <_IO_stdin_used+0x9780>
  game_mode = new_mode ();
    96e3:	48 89 c7             	mov    %rax,%rdi
    96e6:	48 89 05 33 5c 01 00 	mov    %rax,0x15c33(%rip)        # 1f320 <game_mode>
  game_mode->enter = game_enter;
    96ed:	48 8d 05 dc f9 ff ff 	lea    -0x624(%rip),%rax        # 90d0 <game_enter>
    96f4:	48 89 07             	mov    %rax,(%rdi)
  game_mode->leave = game_leave;
    96f7:	48 8d 05 a2 f9 ff ff 	lea    -0x65e(%rip),%rax        # 90a0 <game_leave>
    96fe:	48 89 47 08          	mov    %rax,0x8(%rdi)
  game_mode->redraw = game_redraw;
    9702:	48 8d 05 77 fc ff ff 	lea    -0x389(%rip),%rax        # 9380 <game_redraw>
    9709:	48 89 47 10          	mov    %rax,0x10(%rdi)
  game_mode->keypress = key_handler;
    970d:	48 8d 05 ec fa ff ff 	lea    -0x514(%rip),%rax        # 9200 <key_handler>
    9714:	48 89 47 30          	mov    %rax,0x30(%rdi)
  game_mode->signal = signal_handler;
    9718:	48 8d 05 91 fa ff ff 	lea    -0x56f(%rip),%rax        # 91b0 <signal_handler>
    971f:	48 89 47 18          	mov    %rax,0x18(%rdi)
  mode_add_key (game_mode, mbk_jump, "jump", 1);
    9723:	e8 88 ef ff ff       	call   86b0 <mode_add_key>
  mode_add_key (game_mode, mbk_fire, "fire", 2);
    9728:	b9 02 00 00 00       	mov    $0x2,%ecx
    972d:	be 08 00 00 00       	mov    $0x8,%esi
    9732:	48 8b 3d e7 5b 01 00 	mov    0x15be7(%rip),%rdi        # 1f320 <game_mode>
    9739:	48 8d 15 45 00 01 00 	lea    0x10045(%rip),%rdx        # 19785 <_IO_stdin_used+0x9785>
    9740:	e8 6b ef ff ff       	call   86b0 <mode_add_key>
  mode_add_key (game_mode, mbk_end, "abort game", 3);
    9745:	48 8b 3d d4 5b 01 00 	mov    0x15bd4(%rip),%rdi        # 1f320 <game_mode>
    974c:	4c 89 e2             	mov    %r12,%rdx
    974f:	b9 03 00 00 00       	mov    $0x3,%ecx
    9754:	be 04 00 00 00       	mov    $0x4,%esi
    9759:	e8 52 ef ff ff       	call   86b0 <mode_add_key>
  mode_complete (game_mode);
    975e:	48 8b 3d bb 5b 01 00 	mov    0x15bbb(%rip),%rdi        # 1f320 <game_mode>
    9765:	e8 c6 ef ff ff       	call   8730 <mode_complete>

  crash_mode = new_mode ();
    976a:	e8 e1 ee ff ff       	call   8650 <new_mode>
  crash_mode->enter = crash_enter;
  crash_mode->redraw = crash_redraw;
  crash_mode->keypress = crash_key_handler;
  mode_add_key (crash_mode, mbk_start, "continue", 1);
    976f:	b9 01 00 00 00       	mov    $0x1,%ecx
    9774:	be 00 02 00 00       	mov    $0x200,%esi
    9779:	48 8d 15 15 00 01 00 	lea    0x10015(%rip),%rdx        # 19795 <_IO_stdin_used+0x9795>
  crash_mode = new_mode ();
    9780:	48 89 c7             	mov    %rax,%rdi
    9783:	48 89 05 8e 5b 01 00 	mov    %rax,0x15b8e(%rip)        # 1f318 <crash_mode>
  crash_mode->enter = crash_enter;
    978a:	48 8d 05 bf fe ff ff 	lea    -0x141(%rip),%rax        # 9650 <crash_enter>
    9791:	48 89 07             	mov    %rax,(%rdi)
  crash_mode->redraw = crash_redraw;
    9794:	48 8d 05 85 fc ff ff 	lea    -0x37b(%rip),%rax        # 9420 <crash_redraw>
    979b:	48 89 47 10          	mov    %rax,0x10(%rdi)
  crash_mode->keypress = crash_key_handler;
    979f:	48 8d 05 fa fa ff ff 	lea    -0x506(%rip),%rax        # 92a0 <crash_key_handler>
    97a6:	48 89 47 30          	mov    %rax,0x30(%rdi)
  mode_add_key (crash_mode, mbk_start, "continue", 1);
    97aa:	e8 01 ef ff ff       	call   86b0 <mode_add_key>
  mode_add_key (crash_mode, mbk_end, "abort game", 3);
    97af:	48 8b 3d 62 5b 01 00 	mov    0x15b62(%rip),%rdi        # 1f318 <crash_mode>
    97b6:	4c 89 e2             	mov    %r12,%rdx
    97b9:	b9 03 00 00 00       	mov    $0x3,%ecx
    97be:	be 04 00 00 00       	mov    $0x4,%esi
    97c3:	e8 e8 ee ff ff       	call   86b0 <mode_add_key>
  mode_complete (crash_mode);
    97c8:	48 8b 3d 49 5b 01 00 	mov    0x15b49(%rip),%rdi        # 1f318 <crash_mode>
}
    97cf:	41 5c                	pop    %r12
  mode_complete (crash_mode);
    97d1:	e9 5a ef ff ff       	jmp    8730 <mode_complete>
    97d6:	66 2e 0f 1f 84 00 00 	cs nopw 0x0(%rax,%rax,1)
    97dd:	00 00 00 

00000000000097e0 <level0_init>:
} data;


static void
level0_init (void)
{
    97e0:	f3 0f 1e fa          	endbr64 
  hole = 2;
    97e4:	c7 05 7e 5b 01 00 02 	movl   $0x2,0x15b7e(%rip)        # 1f36c <hole>
    97eb:	00 00 00 
  data.l0.state = 0;
    97ee:	c7 05 48 5b 01 00 00 	movl   $0x0,0x15b48(%rip)        # 1f340 <data>
    97f5:	00 00 00 
}
    97f8:	c3                   	ret    
    97f9:	0f 1f 80 00 00 00 00 	nopl   0x0(%rax)

0000000000009800 <level1_init>:
}


static void
level1_init (void)
{
    9800:	f3 0f 1e fa          	endbr64 
  hole = 5;
    9804:	c7 05 5e 5b 01 00 05 	movl   $0x5,0x15b5e(%rip)        # 1f36c <hole>
    980b:	00 00 00 
  data.l1.state = 0;
    980e:	c7 05 28 5b 01 00 00 	movl   $0x0,0x15b28(%rip)        # 1f340 <data>
    9815:	00 00 00 
}
    9818:	c3                   	ret    
    9819:	0f 1f 80 00 00 00 00 	nopl   0x0(%rax)

0000000000009820 <level2_init>:
}


static void
level2_init (void)
{
    9820:	f3 0f 1e fa          	endbr64 
  hole = 2;
    9824:	c7 05 3e 5b 01 00 02 	movl   $0x2,0x15b3e(%rip)        # 1f36c <hole>
    982b:	00 00 00 
  data.l2.state = 0;
    982e:	c7 05 08 5b 01 00 00 	movl   $0x0,0x15b08(%rip)        # 1f340 <data>
    9835:	00 00 00 
}
    9838:	c3                   	ret    
    9839:	0f 1f 80 00 00 00 00 	nopl   0x0(%rax)

0000000000009840 <level3_init>:
}


static void
level3_init (void)
{
    9840:	f3 0f 1e fa          	endbr64 
  data.l3.state = -1;
    9844:	c7 05 f2 5a 01 00 ff 	movl   $0xffffffff,0x15af2(%rip)        # 1f340 <data>
    984b:	ff ff ff 
}
    984e:	c3                   	ret    
    984f:	90                   	nop

0000000000009850 <level_fin_init>:
}


static void
level_fin_init (void)
{
    9850:	f3 0f 1e fa          	endbr64 
    9854:	48 83 ec 08          	sub    $0x8,%rsp
  data.l_fin.state = uniform_rnd (10);
    9858:	bf 0a 00 00 00       	mov    $0xa,%edi
    985d:	e8 1e 60 00 00       	call   f880 <uniform_rnd>
  hole = 2;
    9862:	c7 05 00 5b 01 00 02 	movl   $0x2,0x15b00(%rip)        # 1f36c <hole>
    9869:	00 00 00 
  data.l_fin.state = uniform_rnd (10);
    986c:	89 05 ce 5a 01 00    	mov    %eax,0x15ace(%rip)        # 1f340 <data>
  data.l_fin.next_gap = 7;
    9872:	48 c7 05 cb 5a 01 00 	movq   $0x7,0x15acb(%rip)        # 1f348 <data+0x8>
    9879:	07 00 00 00 
  data.l_fin.spare_time = 0;
}
    987d:	48 83 c4 08          	add    $0x8,%rsp
    9881:	c3                   	ret    
    9882:	66 66 2e 0f 1f 84 00 	data16 cs nopw 0x0(%rax,%rax,1)
    9889:	00 00 00 00 
    988d:	0f 1f 00             	nopl   (%rax)

0000000000009890 <level6_init>:
{
    9890:	f3 0f 1e fa          	endbr64 
    9894:	48 83 ec 08          	sub    $0x8,%rsp
  data.l6.next_gap = 8 + uniform_rnd (10);
    9898:	bf 0a 00 00 00       	mov    $0xa,%edi
  hole = 5;
    989d:	c7 05 c5 5a 01 00 05 	movl   $0x5,0x15ac5(%rip)        # 1f36c <hole>
    98a4:	00 00 00 
  data.l6.next_gap = 8 + uniform_rnd (10);
    98a7:	e8 d4 5f 00 00       	call   f880 <uniform_rnd>
  data.l6.state = 3;
    98ac:	c7 05 8a 5a 01 00 03 	movl   $0x3,0x15a8a(%rip)        # 1f340 <data>
    98b3:	00 00 00 
  data.l6.spare_time = 6;
    98b6:	c7 05 8c 5a 01 00 06 	movl   $0x6,0x15a8c(%rip)        # 1f34c <data+0xc>
    98bd:	00 00 00 
  data.l6.next_gap = 8 + uniform_rnd (10);
    98c0:	83 c0 08             	add    $0x8,%eax
    98c3:	89 05 7f 5a 01 00    	mov    %eax,0x15a7f(%rip)        # 1f348 <data+0x8>
}
    98c9:	48 83 c4 08          	add    $0x8,%rsp
    98cd:	c3                   	ret    
    98ce:	66 90                	xchg   %ax,%ax

00000000000098d0 <level4>:
{
    98d0:	f3 0f 1e fa          	endbr64 
    98d4:	48 83 ec 08          	sub    $0x8,%rsp
  if (is_edge) {
    98d8:	8b 05 86 5a 01 00    	mov    0x15a86(%rip),%eax        # 1f364 <is_edge>
    98de:	85 c0                	test   %eax,%eax
    98e0:	74 2b                	je     990d <level4+0x3d>
    data.l4.gap = data.l4.next_gap;
    98e2:	8b 05 60 5a 01 00    	mov    0x15a60(%rip),%eax        # 1f348 <data+0x8>
    98e8:	89 05 56 5a 01 00    	mov    %eax,0x15a56(%rip)        # 1f344 <data+0x4>
    if (data.l4.state == 0 && ticks < 700) {
    98ee:	8b 05 4c 5a 01 00    	mov    0x15a4c(%rip),%eax        # 1f340 <data>
    98f4:	85 c0                	test   %eax,%eax
    98f6:	74 30                	je     9928 <level4+0x58>
      --data.l4.state;
    98f8:	83 e8 01             	sub    $0x1,%eax
      data.l4.state = 3 + uniform_rnd (3 + 2*(ticks < 350));
    98fb:	89 05 3f 5a 01 00    	mov    %eax,0x15a3f(%rip)        # 1f340 <data>
    if (data.l4.state < -5)  ++level;
    9901:	83 f8 fb             	cmp    $0xfffffffb,%eax
    9904:	7d 07                	jge    990d <level4+0x3d>
    9906:	83 05 4f 5a 01 00 01 	addl   $0x1,0x15a4f(%rip)        # 1f35c <level>
  --data.l4.gap;
    990d:	8b 05 31 5a 01 00    	mov    0x15a31(%rip),%eax        # 1f344 <data+0x4>
    9913:	83 e8 01             	sub    $0x1,%eax
    9916:	89 05 28 5a 01 00    	mov    %eax,0x15a28(%rip)        # 1f344 <data+0x4>
  if (data.l4.gap <= 0) {
    991c:	85 c0                	test   %eax,%eax
    991e:	7e 30                	jle    9950 <level4+0x80>
}
    9920:	48 83 c4 08          	add    $0x8,%rsp
    9924:	c3                   	ret    
    9925:	0f 1f 00             	nopl   (%rax)
    if (data.l4.state == 0 && ticks < 700) {
    9928:	8b 15 22 5a 01 00    	mov    0x15a22(%rip),%edx        # 1f350 <ticks>
    992e:	81 fa bb 02 00 00    	cmp    $0x2bb,%edx
    9934:	7f c2                	jg     98f8 <level4+0x28>
      data.l4.state = 3 + uniform_rnd (3 + 2*(ticks < 350));
    9936:	31 ff                	xor    %edi,%edi
    9938:	81 fa 5e 01 00 00    	cmp    $0x15e,%edx
    993e:	40 0f 9c c7          	setl   %dil
    9942:	8d 7c 3f 03          	lea    0x3(%rdi,%rdi,1),%edi
    9946:	e8 35 5f 00 00       	call   f880 <uniform_rnd>
    994b:	83 c0 03             	add    $0x3,%eax
    994e:	eb ab                	jmp    98fb <level4+0x2b>
    switch (data.l4.state) {
    9950:	8b 05 ea 59 01 00    	mov    0x159ea(%rip),%eax        # 1f340 <data>
    9956:	83 c0 05             	add    $0x5,%eax
    9959:	83 f8 05             	cmp    $0x5,%eax
    995c:	0f 87 dd 00 00 00    	ja     9a3f <level4+0x16f>
    9962:	48 8d 15 57 fe 00 00 	lea    0xfe57(%rip),%rdx        # 197c0 <_IO_stdin_used+0x97c0>
    9969:	48 63 04 82          	movslq (%rdx,%rax,4),%rax
    996d:	48 01 d0             	add    %rdx,%rax
    9970:	3e ff e0             	notrack jmp *%rax
    9973:	0f 1f 44 00 00       	nopl   0x0(%rax,%rax,1)
      hole = 3;
    9978:	c7 05 ea 59 01 00 03 	movl   $0x3,0x159ea(%rip)        # 1f36c <hole>
    997f:	00 00 00 
      data.l4.next_gap = 14;
    9982:	c7 05 bc 59 01 00 0e 	movl   $0xe,0x159bc(%rip)        # 1f348 <data+0x8>
    9989:	00 00 00 
      break;
    998c:	eb 92                	jmp    9920 <level4+0x50>
    998e:	66 90                	xchg   %ax,%ax
      hole = 6;
    9990:	c7 05 d2 59 01 00 06 	movl   $0x6,0x159d2(%rip)        # 1f36c <hole>
    9997:	00 00 00 
      data.l4.next_gap = 6;
    999a:	c7 05 a4 59 01 00 06 	movl   $0x6,0x159a4(%rip)        # 1f348 <data+0x8>
    99a1:	00 00 00 
      break;
    99a4:	e9 77 ff ff ff       	jmp    9920 <level4+0x50>
    99a9:	0f 1f 80 00 00 00 00 	nopl   0x0(%rax)
      hole = 4;
    99b0:	c7 05 b2 59 01 00 04 	movl   $0x4,0x159b2(%rip)        # 1f36c <hole>
    99b7:	00 00 00 
      data.l4.next_gap = 16 + uniform_rnd (6);
    99ba:	bf 06 00 00 00       	mov    $0x6,%edi
    99bf:	e8 bc 5e 00 00       	call   f880 <uniform_rnd>
    99c4:	83 c0 10             	add    $0x10,%eax
    99c7:	89 05 7b 59 01 00    	mov    %eax,0x1597b(%rip)        # 1f348 <data+0x8>
      break;
    99cd:	e9 4e ff ff ff       	jmp    9920 <level4+0x50>
    99d2:	66 0f 1f 44 00 00    	nopw   0x0(%rax,%rax,1)
      hole = 2;
    99d8:	c7 05 8a 59 01 00 02 	movl   $0x2,0x1598a(%rip)        # 1f36c <hole>
    99df:	00 00 00 
      data.l4.next_gap = 7;
    99e2:	c7 05 5c 59 01 00 07 	movl   $0x7,0x1595c(%rip)        # 1f348 <data+0x8>
    99e9:	00 00 00 
      break;
    99ec:	e9 2f ff ff ff       	jmp    9920 <level4+0x50>
    99f1:	0f 1f 80 00 00 00 00 	nopl   0x0(%rax)
      hole = 5;
    99f8:	c7 05 6a 59 01 00 05 	movl   $0x5,0x1596a(%rip)        # 1f36c <hole>
    99ff:	00 00 00 
      data.l4.next_gap = 12;
    9a02:	c7 05 3c 59 01 00 0c 	movl   $0xc,0x1593c(%rip)        # 1f348 <data+0x8>
    9a09:	00 00 00 
}
    9a0c:	e9 0f ff ff ff       	jmp    9920 <level4+0x50>
    9a11:	0f 1f 80 00 00 00 00 	nopl   0x0(%rax)
      if (uniform_rnd (2)) {
    9a18:	bf 02 00 00 00       	mov    $0x2,%edi
    9a1d:	e8 5e 5e 00 00       	call   f880 <uniform_rnd>
    9a22:	85 c0                	test   %eax,%eax
    9a24:	75 4a                	jne    9a70 <level4+0x1a0>
        hole = 2;
    9a26:	c7 05 3c 59 01 00 02 	movl   $0x2,0x1593c(%rip)        # 1f36c <hole>
    9a2d:	00 00 00 
        data.l4.next_gap = 8;
    9a30:	c7 05 0e 59 01 00 08 	movl   $0x8,0x1590e(%rip)        # 1f348 <data+0x8>
    9a37:	00 00 00 
    9a3a:	e9 e1 fe ff ff       	jmp    9920 <level4+0x50>
      hole = 2 + uniform_rnd (3);
    9a3f:	bf 03 00 00 00       	mov    $0x3,%edi
    9a44:	e8 37 5e 00 00       	call   f880 <uniform_rnd>
      data.l4.next_gap = 14 + uniform_rnd (6) - hole;
    9a49:	bf 06 00 00 00       	mov    $0x6,%edi
      hole = 2 + uniform_rnd (3);
    9a4e:	83 c0 02             	add    $0x2,%eax
    9a51:	89 05 15 59 01 00    	mov    %eax,0x15915(%rip)        # 1f36c <hole>
      data.l4.next_gap = 14 + uniform_rnd (6) - hole;
    9a57:	e8 24 5e 00 00       	call   f880 <uniform_rnd>
    9a5c:	83 c0 0e             	add    $0xe,%eax
    9a5f:	2b 05 07 59 01 00    	sub    0x15907(%rip),%eax        # 1f36c <hole>
    9a65:	89 05 dd 58 01 00    	mov    %eax,0x158dd(%rip)        # 1f348 <data+0x8>
      break;
    9a6b:	e9 b0 fe ff ff       	jmp    9920 <level4+0x50>
        hole = 5;
    9a70:	c7 05 f2 58 01 00 05 	movl   $0x5,0x158f2(%rip)        # 1f36c <hole>
    9a77:	00 00 00 
        data.l4.next_gap = 9 + uniform_rnd (10);
    9a7a:	bf 0a 00 00 00       	mov    $0xa,%edi
    9a7f:	e8 fc 5d 00 00       	call   f880 <uniform_rnd>
    9a84:	83 c0 09             	add    $0x9,%eax
    9a87:	89 05 bb 58 01 00    	mov    %eax,0x158bb(%rip)        # 1f348 <data+0x8>
    9a8d:	e9 8e fe ff ff       	jmp    9920 <level4+0x50>
    9a92:	66 66 2e 0f 1f 84 00 	data16 cs nopw 0x0(%rax,%rax,1)
    9a99:	00 00 00 00 
    9a9d:	0f 1f 00             	nopl   (%rax)

0000000000009aa0 <level4_init>:
{
    9aa0:	f3 0f 1e fa          	endbr64 
    9aa4:	48 83 ec 08          	sub    $0x8,%rsp
  data.l4.next_gap = 8 + uniform_rnd (10);
    9aa8:	bf 0a 00 00 00       	mov    $0xa,%edi
  hole = 6;
    9aad:	c7 05 b5 58 01 00 06 	movl   $0x6,0x158b5(%rip)        # 1f36c <hole>
    9ab4:	00 00 00 
  data.l4.next_gap = 8 + uniform_rnd (10);
    9ab7:	e8 c4 5d 00 00       	call   f880 <uniform_rnd>
  data.l4.state = 3;
    9abc:	c7 05 7a 58 01 00 03 	movl   $0x3,0x1587a(%rip)        # 1f340 <data>
    9ac3:	00 00 00 
  data.l4.next_gap = 8 + uniform_rnd (10);
    9ac6:	83 c0 08             	add    $0x8,%eax
    9ac9:	89 05 79 58 01 00    	mov    %eax,0x15879(%rip)        # 1f348 <data+0x8>
}
    9acf:	48 83 c4 08          	add    $0x8,%rsp
    9ad3:	c3                   	ret    
    9ad4:	66 66 2e 0f 1f 84 00 	data16 cs nopw 0x0(%rax,%rax,1)
    9adb:	00 00 00 00 
    9adf:	90                   	nop

0000000000009ae0 <level2>:
{
    9ae0:	f3 0f 1e fa          	endbr64 
  if (is_edge) {
    9ae4:	8b 05 7a 58 01 00    	mov    0x1587a(%rip),%eax        # 1f364 <is_edge>
    9aea:	85 c0                	test   %eax,%eax
    9aec:	74 72                	je     9b60 <level2+0x80>
{
    9aee:	48 83 ec 08          	sub    $0x8,%rsp
    if (data.l2.state == 0) {
    9af2:	8b 05 48 58 01 00    	mov    0x15848(%rip),%eax        # 1f340 <data>
    9af8:	85 c0                	test   %eax,%eax
    9afa:	0f 85 90 00 00 00    	jne    9b90 <level2+0xb0>
      data.l2.gap = 8;
    9b00:	c7 05 3a 58 01 00 08 	movl   $0x8,0x1583a(%rip)        # 1f344 <data+0x4>
    9b07:	00 00 00 
      if (ticks >= 310) {
    9b0a:	8b 05 40 58 01 00    	mov    0x15840(%rip),%eax        # 1f350 <ticks>
    9b10:	3d 35 01 00 00       	cmp    $0x135,%eax
    9b15:	0f 8f c5 00 00 00    	jg     9be0 <level2+0x100>
        data.l2.state = 2 + uniform_rnd (3 + (ticks < 190));
    9b1b:	31 ff                	xor    %edi,%edi
    9b1d:	3d be 00 00 00       	cmp    $0xbe,%eax
    9b22:	40 0f 9c c7          	setl   %dil
    9b26:	83 c7 03             	add    $0x3,%edi
    9b29:	e8 52 5d 00 00       	call   f880 <uniform_rnd>
  --data.l2.gap;
    9b2e:	8b 0d 10 58 01 00    	mov    0x15810(%rip),%ecx        # 1f344 <data+0x4>
        data.l2.state = 2 + uniform_rnd (3 + (ticks < 190));
    9b34:	83 c0 02             	add    $0x2,%eax
    9b37:	89 05 03 58 01 00    	mov    %eax,0x15803(%rip)        # 1f340 <data>
  --data.l2.gap;
    9b3d:	8d 51 ff             	lea    -0x1(%rcx),%edx
    9b40:	89 15 fe 57 01 00    	mov    %edx,0x157fe(%rip)        # 1f344 <data+0x4>
  if (data.l2.gap <= 0)  hole = 2;
    9b46:	85 d2                	test   %edx,%edx
    9b48:	7f 76                	jg     9bc0 <level2+0xe0>
    9b4a:	c7 05 18 58 01 00 02 	movl   $0x2,0x15818(%rip)        # 1f36c <hole>
    9b51:	00 00 00 
    9b54:	eb 6a                	jmp    9bc0 <level2+0xe0>
    9b56:	66 2e 0f 1f 84 00 00 	cs nopw 0x0(%rax,%rax,1)
    9b5d:	00 00 00 
  --data.l2.gap;
    9b60:	8b 05 de 57 01 00    	mov    0x157de(%rip),%eax        # 1f344 <data+0x4>
    9b66:	8d 50 ff             	lea    -0x1(%rax),%edx
    9b69:	8b 05 d1 57 01 00    	mov    0x157d1(%rip),%eax        # 1f340 <data>
    9b6f:	89 15 cf 57 01 00    	mov    %edx,0x157cf(%rip)        # 1f344 <data+0x4>
  if (data.l2.gap <= 0)  hole = 2;
    9b75:	85 d2                	test   %edx,%edx
    9b77:	7f 0a                	jg     9b83 <level2+0xa3>
    9b79:	c7 05 e9 57 01 00 02 	movl   $0x2,0x157e9(%rip)        # 1f36c <hole>
    9b80:	00 00 00 
  if (data.l2.state < -6)  ++level;
    9b83:	83 f8 fa             	cmp    $0xfffffffa,%eax
    9b86:	7d 50                	jge    9bd8 <level2+0xf8>
    9b88:	83 05 cd 57 01 00 01 	addl   $0x1,0x157cd(%rip)        # 1f35c <level>
    9b8f:	c3                   	ret    
    } else if (data.l2.state > 0) {
    9b90:	7f 6e                	jg     9c00 <level2+0x120>
      switch (data.l2.state) {
    9b92:	83 f8 fe             	cmp    $0xfffffffe,%eax
    9b95:	0f 84 a0 00 00 00    	je     9c3b <level2+0x15b>
    9b9b:	83 f8 ff             	cmp    $0xffffffff,%eax
    9b9e:	0f 84 84 00 00 00    	je     9c28 <level2+0x148>
    9ba4:	83 f8 fc             	cmp    $0xfffffffc,%eax
    9ba7:	0f 84 a4 00 00 00    	je     9c51 <level2+0x171>
  --data.l2.gap;
    9bad:	c7 05 8d 57 01 00 06 	movl   $0x6,0x1578d(%rip)        # 1f344 <data+0x4>
    9bb4:	00 00 00 
      --data.l2.state;
    9bb7:	83 e8 01             	sub    $0x1,%eax
    9bba:	89 05 80 57 01 00    	mov    %eax,0x15780(%rip)        # 1f340 <data>
  if (data.l2.state < -6)  ++level;
    9bc0:	83 f8 fa             	cmp    $0xfffffffa,%eax
    9bc3:	7d 07                	jge    9bcc <level2+0xec>
    9bc5:	83 05 90 57 01 00 01 	addl   $0x1,0x15790(%rip)        # 1f35c <level>
}
    9bcc:	48 83 c4 08          	add    $0x8,%rsp
    9bd0:	c3                   	ret    
    9bd1:	0f 1f 80 00 00 00 00 	nopl   0x0(%rax)
    9bd8:	c3                   	ret    
    9bd9:	0f 1f 80 00 00 00 00 	nopl   0x0(%rax)
        data.l2.state = -1;
    9be0:	48 b8 ff ff ff ff 07 	movabs $0x7ffffffff,%rax
    9be7:	00 00 00 
    9bea:	48 89 05 4f 57 01 00 	mov    %rax,0x1574f(%rip)        # 1f340 <data>
}
    9bf1:	48 83 c4 08          	add    $0x8,%rsp
    9bf5:	c3                   	ret    
    9bf6:	66 2e 0f 1f 84 00 00 	cs nopw 0x0(%rax,%rax,1)
    9bfd:	00 00 00 
      data.l2.gap = 12 + uniform_rnd (6);
    9c00:	bf 06 00 00 00       	mov    $0x6,%edi
    9c05:	e8 76 5c 00 00       	call   f880 <uniform_rnd>
    9c0a:	41 89 c0             	mov    %eax,%r8d
      --data.l2.state;
    9c0d:	8b 05 2d 57 01 00    	mov    0x1572d(%rip),%eax        # 1f340 <data>
  --data.l2.gap;
    9c13:	41 8d 50 0b          	lea    0xb(%r8),%edx
      --data.l2.state;
    9c17:	83 e8 01             	sub    $0x1,%eax
    9c1a:	89 05 20 57 01 00    	mov    %eax,0x15720(%rip)        # 1f340 <data>
    9c20:	e9 1b ff ff ff       	jmp    9b40 <level2+0x60>
    9c25:	0f 1f 00             	nopl   (%rax)
      --data.l2.state;
    9c28:	48 b8 fe ff ff ff 0f 	movabs $0xffffffffe,%rax
    9c2f:	00 00 00 
    9c32:	48 89 05 07 57 01 00 	mov    %rax,0x15707(%rip)        # 1f340 <data>
  if (data.l2.gap <= 0)  hole = 2;
    9c39:	eb 85                	jmp    9bc0 <level2+0xe0>
      --data.l2.state;
    9c3b:	48 b8 fd ff ff ff 0c 	movabs $0xcfffffffd,%rax
    9c42:	00 00 00 
    9c45:	48 89 05 f4 56 01 00 	mov    %rax,0x156f4(%rip)        # 1f340 <data>
  if (data.l2.gap <= 0)  hole = 2;
    9c4c:	e9 6f ff ff ff       	jmp    9bc0 <level2+0xe0>
      --data.l2.state;
    9c51:	48 b8 fb ff ff ff 0d 	movabs $0xdfffffffb,%rax
    9c58:	00 00 00 
    9c5b:	48 89 05 de 56 01 00 	mov    %rax,0x156de(%rip)        # 1f340 <data>
  if (data.l2.gap <= 0)  hole = 2;
    9c62:	e9 59 ff ff ff       	jmp    9bc0 <level2+0xe0>
    9c67:	66 0f 1f 84 00 00 00 	nopw   0x0(%rax,%rax,1)
    9c6e:	00 00 

0000000000009c70 <level1>:
{
    9c70:	f3 0f 1e fa          	endbr64 
  if (is_edge) {
    9c74:	8b 05 ea 56 01 00    	mov    0x156ea(%rip),%eax        # 1f364 <is_edge>
{
    9c7a:	53                   	push   %rbx
  if (is_edge) {
    9c7b:	85 c0                	test   %eax,%eax
    9c7d:	75 49                	jne    9cc8 <level1+0x58>
  --data.l1.gap;
    9c7f:	8b 05 bf 56 01 00    	mov    0x156bf(%rip),%eax        # 1f344 <data+0x4>
    9c85:	83 e8 01             	sub    $0x1,%eax
    9c88:	89 05 b6 56 01 00    	mov    %eax,0x156b6(%rip)        # 1f344 <data+0x4>
  if (data.l1.gap <= 0) {
    9c8e:	85 c0                	test   %eax,%eax
    9c90:	7f 2f                	jg     9cc1 <level1+0x51>
    switch (data.l1.state) {
    9c92:	8b 05 a8 56 01 00    	mov    0x156a8(%rip),%eax        # 1f340 <data>
    9c98:	83 f8 02             	cmp    $0x2,%eax
    9c9b:	7f 6b                	jg     9d08 <level1+0x98>
    9c9d:	85 c0                	test   %eax,%eax
    9c9f:	0f 8f db 00 00 00    	jg     9d80 <level1+0x110>
      hole = table [uniform_rnd (11)];
    9ca5:	bf 0b 00 00 00       	mov    $0xb,%edi
    9caa:	e8 d1 5b 00 00       	call   f880 <uniform_rnd>
    9caf:	48 8d 15 8a fb 00 00 	lea    0xfb8a(%rip),%rdx        # 19840 <table.3>
    9cb6:	48 98                	cltq   
    9cb8:	8b 04 82             	mov    (%rdx,%rax,4),%eax
    9cbb:	89 05 ab 56 01 00    	mov    %eax,0x156ab(%rip)        # 1f36c <hole>
}
    9cc1:	5b                   	pop    %rbx
    9cc2:	c3                   	ret    
    9cc3:	0f 1f 44 00 00       	nopl   0x0(%rax,%rax,1)
    if (ticks < 300) {
    9cc8:	8b 1d 82 56 01 00    	mov    0x15682(%rip),%ebx        # 1f350 <ticks>
    9cce:	81 fb 2b 01 00 00    	cmp    $0x12b,%ebx
    9cd4:	7e 62                	jle    9d38 <level1+0xc8>
      switch (data.l1.state) {
    9cd6:	8b 05 64 56 01 00    	mov    0x15664(%rip),%eax        # 1f340 <data>
    9cdc:	83 f8 01             	cmp    $0x1,%eax
    9cdf:	0f 84 ab 00 00 00    	je     9d90 <level1+0x120>
    9ce5:	83 f8 02             	cmp    $0x2,%eax
    9ce8:	74 36                	je     9d20 <level1+0xb0>
      if (data.l1.state > 2) {
    9cea:	0f 8e b3 00 00 00    	jle    9da3 <level1+0x133>
        ++level;
    9cf0:	83 05 65 56 01 00 01 	addl   $0x1,0x15665(%rip)        # 1f35c <level>
}
    9cf7:	5b                   	pop    %rbx
  --data.l1.gap;
    9cf8:	c7 05 42 56 01 00 0b 	movl   $0xb,0x15642(%rip)        # 1f344 <data+0x4>
    9cff:	00 00 00 
}
    9d02:	c3                   	ret    
    9d03:	0f 1f 44 00 00       	nopl   0x0(%rax,%rax,1)
    switch (data.l1.state) {
    9d08:	83 f8 03             	cmp    $0x3,%eax
    9d0b:	75 98                	jne    9ca5 <level1+0x35>
      hole = 5;
    9d0d:	c7 05 55 56 01 00 05 	movl   $0x5,0x15655(%rip)        # 1f36c <hole>
    9d14:	00 00 00 
}
    9d17:	5b                   	pop    %rbx
    9d18:	c3                   	ret    
    9d19:	0f 1f 80 00 00 00 00 	nopl   0x0(%rax)
        ++data.l1.state;
    9d20:	48 b8 03 00 00 00 07 	movabs $0x700000003,%rax
    9d27:	00 00 00 
}
    9d2a:	5b                   	pop    %rbx
        ++data.l1.state;
    9d2b:	48 89 05 0e 56 01 00 	mov    %rax,0x1560e(%rip)        # 1f340 <data>
}
    9d32:	c3                   	ret    
    9d33:	0f 1f 44 00 00       	nopl   0x0(%rax,%rax,1)
      data.l1.gap = 14.5 - ticks*4.0/300 + uniform_rnd (3);
    9d38:	bf 03 00 00 00       	mov    $0x3,%edi
    9d3d:	e8 3e 5b 00 00       	call   f880 <uniform_rnd>
    9d42:	f2 0f 10 05 26 fc 00 	movsd  0xfc26(%rip),%xmm0        # 19970 <__PRETTY_FUNCTION__.4+0x100>
    9d49:	00 
    9d4a:	66 0f ef c9          	pxor   %xmm1,%xmm1
    9d4e:	f2 0f 2a cb          	cvtsi2sd %ebx,%xmm1
    9d52:	f2 0f 59 0d 06 fc 00 	mulsd  0xfc06(%rip),%xmm1        # 19960 <__PRETTY_FUNCTION__.4+0xf0>
    9d59:	00 
    9d5a:	f2 0f 5e 0d 06 fc 00 	divsd  0xfc06(%rip),%xmm1        # 19968 <__PRETTY_FUNCTION__.4+0xf8>
    9d61:	00 
    9d62:	f2 0f 5c c1          	subsd  %xmm1,%xmm0
    9d66:	66 0f ef c9          	pxor   %xmm1,%xmm1
    9d6a:	f2 0f 2a c8          	cvtsi2sd %eax,%xmm1
    9d6e:	f2 0f 58 c1          	addsd  %xmm1,%xmm0
    9d72:	f2 0f 2c c0          	cvttsd2si %xmm0,%eax
  --data.l1.gap;
    9d76:	83 e8 01             	sub    $0x1,%eax
    9d79:	e9 0a ff ff ff       	jmp    9c88 <level1+0x18>
    9d7e:	66 90                	xchg   %ax,%ax
      hole = 4;
    9d80:	c7 05 e2 55 01 00 04 	movl   $0x4,0x155e2(%rip)        # 1f36c <hole>
    9d87:	00 00 00 
}
    9d8a:	5b                   	pop    %rbx
    9d8b:	c3                   	ret    
    9d8c:	0f 1f 40 00          	nopl   0x0(%rax)
        ++data.l1.state;
    9d90:	48 b8 02 00 00 00 06 	movabs $0x600000002,%rax
    9d97:	00 00 00 
}
    9d9a:	5b                   	pop    %rbx
        ++data.l1.state;
    9d9b:	48 89 05 9e 55 01 00 	mov    %rax,0x1559e(%rip)        # 1f340 <data>
}
    9da2:	c3                   	ret    
  --data.l1.gap;
    9da3:	c7 05 97 55 01 00 0b 	movl   $0xb,0x15597(%rip)        # 1f344 <data+0x4>
    9daa:	00 00 00 
        ++data.l1.state;
    9dad:	83 c0 01             	add    $0x1,%eax
}
    9db0:	5b                   	pop    %rbx
        ++data.l1.state;
    9db1:	89 05 89 55 01 00    	mov    %eax,0x15589(%rip)        # 1f340 <data>
}
    9db7:	c3                   	ret    
    9db8:	0f 1f 84 00 00 00 00 	nopl   0x0(%rax,%rax,1)
    9dbf:	00 

0000000000009dc0 <level0>:
{
    9dc0:	f3 0f 1e fa          	endbr64 
  if (is_edge) {
    9dc4:	8b 05 9a 55 01 00    	mov    0x1559a(%rip),%eax        # 1f364 <is_edge>
    9dca:	85 c0                	test   %eax,%eax
    9dcc:	75 2a                	jne    9df8 <level0+0x38>
  --data.l0.gap;
    9dce:	8b 05 70 55 01 00    	mov    0x15570(%rip),%eax        # 1f344 <data+0x4>
    9dd4:	83 e8 01             	sub    $0x1,%eax
    9dd7:	89 05 67 55 01 00    	mov    %eax,0x15567(%rip)        # 1f344 <data+0x4>
  if (data.l0.gap <= 0)  hole = 2;
    9ddd:	85 c0                	test   %eax,%eax
    9ddf:	7f 0f                	jg     9df0 <level0+0x30>
    9de1:	c7 05 81 55 01 00 02 	movl   $0x2,0x15581(%rip)        # 1f36c <hole>
    9de8:	00 00 00 
    9deb:	c3                   	ret    
    9dec:	0f 1f 40 00          	nopl   0x0(%rax)
    9df0:	c3                   	ret    
    9df1:	0f 1f 80 00 00 00 00 	nopl   0x0(%rax)
    if (ticks < 345) {
    9df8:	8b 05 52 55 01 00    	mov    0x15552(%rip),%eax        # 1f350 <ticks>
    9dfe:	3d 58 01 00 00       	cmp    $0x158,%eax
    9e03:	7e 3b                	jle    9e40 <level0+0x80>
      switch (data.l0.state) {
    9e05:	8b 15 35 55 01 00    	mov    0x15535(%rip),%edx        # 1f340 <data>
    9e0b:	83 fa 01             	cmp    $0x1,%edx
    9e0e:	0f 84 dc 00 00 00    	je     9ef0 <level0+0x130>
    9e14:	83 fa 02             	cmp    $0x2,%edx
    9e17:	0f 84 bb 00 00 00    	je     9ed8 <level0+0x118>
    9e1d:	85 d2                	test   %edx,%edx
    9e1f:	0f 84 9b 00 00 00    	je     9ec0 <level0+0x100>
  --data.l0.gap;
    9e25:	8b 05 19 55 01 00    	mov    0x15519(%rip),%eax        # 1f344 <data+0x4>
      ++data.l0.state;
    9e2b:	83 c2 01             	add    $0x1,%edx
        ++level;
    9e2e:	83 05 27 55 01 00 01 	addl   $0x1,0x15527(%rip)        # 1f35c <level>
      ++data.l0.state;
    9e35:	89 15 05 55 01 00    	mov    %edx,0x15505(%rip)        # 1f340 <data>
  --data.l0.gap;
    9e3b:	83 e8 01             	sub    $0x1,%eax
      ++data.l0.state;
    9e3e:	eb 97                	jmp    9dd7 <level0+0x17>
      data.l0.gap = 14.5 - ticks*4.0/345 + uniform_rnd (4.5 + ticks*4.0/345);
    9e40:	66 0f ef c0          	pxor   %xmm0,%xmm0
{
    9e44:	48 83 ec 18          	sub    $0x18,%rsp
      data.l0.gap = 14.5 - ticks*4.0/345 + uniform_rnd (4.5 + ticks*4.0/345);
    9e48:	f2 0f 2a c0          	cvtsi2sd %eax,%xmm0
    9e4c:	f2 0f 59 05 0c fb 00 	mulsd  0xfb0c(%rip),%xmm0        # 19960 <__PRETTY_FUNCTION__.4+0xf0>
    9e53:	00 
    9e54:	f2 0f 5e 05 1c fb 00 	divsd  0xfb1c(%rip),%xmm0        # 19978 <__PRETTY_FUNCTION__.4+0x108>
    9e5b:	00 
    9e5c:	66 0f 28 c8          	movapd %xmm0,%xmm1
    9e60:	f2 0f 58 0d 18 fb 00 	addsd  0xfb18(%rip),%xmm1        # 19980 <__PRETTY_FUNCTION__.4+0x110>
    9e67:	00 
    9e68:	f2 0f 11 44 24 08    	movsd  %xmm0,0x8(%rsp)
    9e6e:	f2 48 0f 2c f9       	cvttsd2si %xmm1,%rdi
    9e73:	e8 08 5a 00 00       	call   f880 <uniform_rnd>
    9e78:	f2 0f 10 44 24 08    	movsd  0x8(%rsp),%xmm0
    9e7e:	f2 0f 10 0d ea fa 00 	movsd  0xfaea(%rip),%xmm1        # 19970 <__PRETTY_FUNCTION__.4+0x100>
    9e85:	00 
    9e86:	f2 0f 5c c8          	subsd  %xmm0,%xmm1
    9e8a:	66 0f ef c0          	pxor   %xmm0,%xmm0
    9e8e:	f2 0f 2a c0          	cvtsi2sd %eax,%xmm0
    9e92:	f2 0f 58 c8          	addsd  %xmm0,%xmm1
    9e96:	f2 0f 2c c1          	cvttsd2si %xmm1,%eax
  --data.l0.gap;
    9e9a:	83 e8 01             	sub    $0x1,%eax
    9e9d:	89 05 a1 54 01 00    	mov    %eax,0x154a1(%rip)        # 1f344 <data+0x4>
  if (data.l0.gap <= 0)  hole = 2;
    9ea3:	85 c0                	test   %eax,%eax
    9ea5:	7f 0a                	jg     9eb1 <level0+0xf1>
    9ea7:	c7 05 bb 54 01 00 02 	movl   $0x2,0x154bb(%rip)        # 1f36c <hole>
    9eae:	00 00 00 
}
    9eb1:	48 83 c4 18          	add    $0x18,%rsp
    9eb5:	c3                   	ret    
    9eb6:	66 2e 0f 1f 84 00 00 	cs nopw 0x0(%rax,%rax,1)
    9ebd:	00 00 00 
      ++data.l0.state;
    9ec0:	48 b8 01 00 00 00 0c 	movabs $0xc00000001,%rax
    9ec7:	00 00 00 
    9eca:	48 89 05 6f 54 01 00 	mov    %rax,0x1546f(%rip)        # 1f340 <data>
  if (data.l0.gap <= 0)  hole = 2;
    9ed1:	c3                   	ret    
    9ed2:	66 0f 1f 44 00 00    	nopw   0x0(%rax,%rax,1)
      ++data.l0.state;
    9ed8:	48 b8 03 00 00 00 0a 	movabs $0xa00000003,%rax
    9edf:	00 00 00 
    9ee2:	48 89 05 57 54 01 00 	mov    %rax,0x15457(%rip)        # 1f340 <data>
  if (data.l0.gap <= 0)  hole = 2;
    9ee9:	c3                   	ret    
    9eea:	66 0f 1f 44 00 00    	nopw   0x0(%rax,%rax,1)
      ++data.l0.state;
    9ef0:	48 b8 02 00 00 00 09 	movabs $0x900000002,%rax
    9ef7:	00 00 00 
    9efa:	48 89 05 3f 54 01 00 	mov    %rax,0x1543f(%rip)        # 1f340 <data>
  if (data.l0.gap <= 0)  hole = 2;
    9f01:	c3                   	ret    
    9f02:	66 66 2e 0f 1f 84 00 	data16 cs nopw 0x0(%rax,%rax,1)
    9f09:	00 00 00 00 
    9f0d:	0f 1f 00             	nopl   (%rax)

0000000000009f10 <level_fin>:

static void
level_fin (double t)
{
    9f10:	f3 0f 1e fa          	endbr64 
    9f14:	48 83 ec 08          	sub    $0x8,%rsp
  if (is_edge) {
    9f18:	8b 15 46 54 01 00    	mov    0x15446(%rip),%edx        # 1f364 <is_edge>
    9f1e:	85 d2                	test   %edx,%edx
    9f20:	74 39                	je     9f5b <level_fin+0x4b>
    data.l_fin.gap = data.l_fin.next_gap;
    9f22:	8b 05 20 54 01 00    	mov    0x15420(%rip),%eax        # 1f348 <data+0x8>
    if (data.l_fin.state == 0) {
    9f28:	8b 15 12 54 01 00    	mov    0x15412(%rip),%edx        # 1f340 <data>
    data.l_fin.gap = data.l_fin.next_gap;
    9f2e:	89 05 10 54 01 00    	mov    %eax,0x15410(%rip)        # 1f344 <data+0x4>
    if (data.l_fin.state == 0) {
    9f34:	85 d2                	test   %edx,%edx
    9f36:	74 10                	je     9f48 <level_fin+0x38>
      data.l_fin.state = 3 + uniform_rnd (6);
    } else {
      --data.l_fin.state;
    9f38:	83 ea 01             	sub    $0x1,%edx
    9f3b:	89 15 ff 53 01 00    	mov    %edx,0x153ff(%rip)        # 1f340 <data>
    9f41:	eb 1e                	jmp    9f61 <level_fin+0x51>
    9f43:	0f 1f 44 00 00       	nopl   0x0(%rax,%rax,1)
      data.l_fin.state = 3 + uniform_rnd (6);
    9f48:	bf 06 00 00 00       	mov    $0x6,%edi
    9f4d:	e8 2e 59 00 00       	call   f880 <uniform_rnd>
    9f52:	83 c0 03             	add    $0x3,%eax
    9f55:	89 05 e5 53 01 00    	mov    %eax,0x153e5(%rip)        # 1f340 <data>
    }
  }
  --data.l_fin.gap;
    9f5b:	8b 05 e3 53 01 00    	mov    0x153e3(%rip),%eax        # 1f344 <data+0x4>
  ++data.l_fin.spare_time;
    9f61:	8b 0d e5 53 01 00    	mov    0x153e5(%rip),%ecx        # 1f34c <data+0xc>
  --data.l_fin.gap;
    9f67:	83 e8 01             	sub    $0x1,%eax
    9f6a:	89 05 d4 53 01 00    	mov    %eax,0x153d4(%rip)        # 1f344 <data+0x4>
  ++data.l_fin.spare_time;
    9f70:	8d 79 01             	lea    0x1(%rcx),%edi
    9f73:	89 3d d3 53 01 00    	mov    %edi,0x153d3(%rip)        # 1f34c <data+0xc>
  if (data.l_fin.gap <= 0) {
    9f79:	85 c0                	test   %eax,%eax
    9f7b:	7e 13                	jle    9f90 <level_fin+0x80>
      }
    }
    data.l_fin.spare_time -= 11;
  }

  if (data.l_fin.spare_time >= 5) {
    9f7d:	83 ff 04             	cmp    $0x4,%edi
    9f80:	7f 58                	jg     9fda <level_fin+0xca>
    if (uniform_rnd (data.l_fin.spare_time) > 2) {
      place_meteor ();
      data.l_fin.spare_time -= 5;
    }
  }
}
    9f82:	48 83 c4 08          	add    $0x8,%rsp
    9f86:	c3                   	ret    
    9f87:	66 0f 1f 84 00 00 00 	nopw   0x0(%rax,%rax,1)
    9f8e:	00 00 
    if (data.l_fin.state) {
    9f90:	8b 05 aa 53 01 00    	mov    0x153aa(%rip),%eax        # 1f340 <data>
      hole = 2 + uniform_rnd (3);
    9f96:	bf 03 00 00 00       	mov    $0x3,%edi
    if (data.l_fin.state) {
    9f9b:	85 c0                	test   %eax,%eax
    9f9d:	74 59                	je     9ff8 <level_fin+0xe8>
      hole = 2 + uniform_rnd (3);
    9f9f:	e8 dc 58 00 00       	call   f880 <uniform_rnd>
      data.l_fin.next_gap = 15 + uniform_rnd (6) - hole;
    9fa4:	bf 06 00 00 00       	mov    $0x6,%edi
      hole = 2 + uniform_rnd (3);
    9fa9:	83 c0 02             	add    $0x2,%eax
    9fac:	89 05 ba 53 01 00    	mov    %eax,0x153ba(%rip)        # 1f36c <hole>
      data.l_fin.next_gap = 15 + uniform_rnd (6) - hole;
    9fb2:	e8 c9 58 00 00       	call   f880 <uniform_rnd>
    9fb7:	83 c0 0f             	add    $0xf,%eax
    9fba:	2b 05 ac 53 01 00    	sub    0x153ac(%rip),%eax        # 1f36c <hole>
    9fc0:	89 05 82 53 01 00    	mov    %eax,0x15382(%rip)        # 1f348 <data+0x8>
    data.l_fin.spare_time -= 11;
    9fc6:	8b 05 80 53 01 00    	mov    0x15380(%rip),%eax        # 1f34c <data+0xc>
    9fcc:	8d 78 f5             	lea    -0xb(%rax),%edi
    9fcf:	89 3d 77 53 01 00    	mov    %edi,0x15377(%rip)        # 1f34c <data+0xc>
  if (data.l_fin.spare_time >= 5) {
    9fd5:	83 ff 04             	cmp    $0x4,%edi
    9fd8:	7e a8                	jle    9f82 <level_fin+0x72>
    if (uniform_rnd (data.l_fin.spare_time) > 2) {
    9fda:	e8 a1 58 00 00       	call   f880 <uniform_rnd>
    9fdf:	83 f8 02             	cmp    $0x2,%eax
    9fe2:	7e 9e                	jle    9f82 <level_fin+0x72>
      place_meteor ();
    9fe4:	e8 67 19 00 00       	call   b950 <place_meteor>
      data.l_fin.spare_time -= 5;
    9fe9:	83 2d 5c 53 01 00 05 	subl   $0x5,0x1535c(%rip)        # 1f34c <data+0xc>
}
    9ff0:	48 83 c4 08          	add    $0x8,%rsp
    9ff4:	c3                   	ret    
    9ff5:	0f 1f 00             	nopl   (%rax)
      if (uniform_rnd (3)) {
    9ff8:	e8 83 58 00 00       	call   f880 <uniform_rnd>
    9ffd:	85 c0                	test   %eax,%eax
    9fff:	74 27                	je     a028 <level_fin+0x118>
        hole = 5 + uniform_rnd (2);
    a001:	bf 02 00 00 00       	mov    $0x2,%edi
    a006:	e8 75 58 00 00       	call   f880 <uniform_rnd>
        data.l_fin.next_gap = 9 + uniform_rnd (10);
    a00b:	bf 0a 00 00 00       	mov    $0xa,%edi
        hole = 5 + uniform_rnd (2);
    a010:	83 c0 05             	add    $0x5,%eax
    a013:	89 05 53 53 01 00    	mov    %eax,0x15353(%rip)        # 1f36c <hole>
        data.l_fin.next_gap = 9 + uniform_rnd (10);
    a019:	e8 62 58 00 00       	call   f880 <uniform_rnd>
    a01e:	83 c0 09             	add    $0x9,%eax
    a021:	eb 9d                	jmp    9fc0 <level_fin+0xb0>
    a023:	0f 1f 44 00 00       	nopl   0x0(%rax,%rax,1)
        hole = 2 + uniform_rnd (3);
    a028:	bf 03 00 00 00       	mov    $0x3,%edi
    a02d:	e8 4e 58 00 00       	call   f880 <uniform_rnd>
    a032:	83 c0 02             	add    $0x2,%eax
    a035:	89 05 31 53 01 00    	mov    %eax,0x15331(%rip)        # 1f36c <hole>
    a03b:	b8 09 00 00 00       	mov    $0x9,%eax
    a040:	e9 7b ff ff ff       	jmp    9fc0 <level_fin+0xb0>
    a045:	66 66 2e 0f 1f 84 00 	data16 cs nopw 0x0(%rax,%rax,1)
    a04c:	00 00 00 00 

000000000000a050 <level6>:
{
    a050:	f3 0f 1e fa          	endbr64 
  if (is_edge) {
    a054:	8b 15 0a 53 01 00    	mov    0x1530a(%rip),%edx        # 1f364 <is_edge>
{
    a05a:	53                   	push   %rbx
  if (is_edge) {
    a05b:	85 d2                	test   %edx,%edx
    a05d:	74 51                	je     a0b0 <level6+0x60>
    data.l6.gap = data.l6.next_gap;
    a05f:	8b 05 e3 52 01 00    	mov    0x152e3(%rip),%eax        # 1f348 <data+0x8>
    if (data.l6.state == 0) {
    a065:	8b 15 d5 52 01 00    	mov    0x152d5(%rip),%edx        # 1f340 <data>
    data.l6.gap = data.l6.next_gap;
    a06b:	89 05 d3 52 01 00    	mov    %eax,0x152d3(%rip)        # 1f344 <data+0x4>
    if (data.l6.state == 0) {
    a071:	85 d2                	test   %edx,%edx
    a073:	74 0b                	je     a080 <level6+0x30>
      --data.l6.state;
    a075:	83 ea 01             	sub    $0x1,%edx
    a078:	89 15 c2 52 01 00    	mov    %edx,0x152c2(%rip)        # 1f340 <data>
    a07e:	eb 36                	jmp    a0b6 <level6+0x66>
      data.l6.state = 3 + uniform_rnd (5);
    a080:	bf 05 00 00 00       	mov    $0x5,%edi
    a085:	e8 f6 57 00 00       	call   f880 <uniform_rnd>
    a08a:	83 c0 03             	add    $0x3,%eax
      if (ticks >= 375)  ++level;
    a08d:	81 3d b9 52 01 00 76 	cmpl   $0x176,0x152b9(%rip)        # 1f350 <ticks>
    a094:	01 00 00 
      data.l6.state = 3 + uniform_rnd (5);
    a097:	89 05 a3 52 01 00    	mov    %eax,0x152a3(%rip)        # 1f340 <data>
      if (ticks >= 375)  ++level;
    a09d:	7e 11                	jle    a0b0 <level6+0x60>
    a09f:	83 05 b6 52 01 00 01 	addl   $0x1,0x152b6(%rip)        # 1f35c <level>
    a0a6:	66 2e 0f 1f 84 00 00 	cs nopw 0x0(%rax,%rax,1)
    a0ad:	00 00 00 
  --data.l6.gap;
    a0b0:	8b 05 8e 52 01 00    	mov    0x1528e(%rip),%eax        # 1f344 <data+0x4>
  ++data.l6.spare_time;
    a0b6:	8b 0d 90 52 01 00    	mov    0x15290(%rip),%ecx        # 1f34c <data+0xc>
  --data.l6.gap;
    a0bc:	83 e8 01             	sub    $0x1,%eax
    a0bf:	89 05 7f 52 01 00    	mov    %eax,0x1527f(%rip)        # 1f344 <data+0x4>
  ++data.l6.spare_time;
    a0c5:	8d 79 01             	lea    0x1(%rcx),%edi
    a0c8:	89 3d 7e 52 01 00    	mov    %edi,0x1527e(%rip)        # 1f34c <data+0xc>
  if (data.l6.gap <= 0) {
    a0ce:	85 c0                	test   %eax,%eax
    a0d0:	7e 5e                	jle    a130 <level6+0xe0>
  slip = (380-ticks)*3.0/374 + 1.5;
    a0d2:	b8 7c 01 00 00       	mov    $0x17c,%eax
    a0d7:	66 0f ef c0          	pxor   %xmm0,%xmm0
    a0db:	2b 05 6f 52 01 00    	sub    0x1526f(%rip),%eax        # 1f350 <ticks>
    a0e1:	f2 0f 2a c0          	cvtsi2sd %eax,%xmm0
    a0e5:	f2 0f 59 05 33 66 00 	mulsd  0x6633(%rip),%xmm0        # 10720 <_IO_stdin_used+0x720>
    a0ec:	00 
    a0ed:	f2 0f 5e 05 93 f8 00 	divsd  0xf893(%rip),%xmm0        # 19988 <__PRETTY_FUNCTION__.4+0x118>
    a0f4:	00 
    a0f5:	f2 0f 58 05 93 f8 00 	addsd  0xf893(%rip),%xmm0        # 19990 <__PRETTY_FUNCTION__.4+0x120>
    a0fc:	00 
    a0fd:	f2 0f 2c d8          	cvttsd2si %xmm0,%ebx
  if (data.l6.spare_time >= 3+slip) {
    a101:	8d 43 02             	lea    0x2(%rbx),%eax
    a104:	39 f8                	cmp    %edi,%eax
    a106:	7c 08                	jl     a110 <level6+0xc0>
}
    a108:	5b                   	pop    %rbx
    a109:	c3                   	ret    
    a10a:	66 0f 1f 44 00 00    	nopw   0x0(%rax,%rax,1)
    if (uniform_rnd (data.l6.spare_time) > 2) {
    a110:	e8 6b 57 00 00       	call   f880 <uniform_rnd>
    a115:	83 f8 02             	cmp    $0x2,%eax
    a118:	7e ee                	jle    a108 <level6+0xb8>
      place_meteor ();
    a11a:	e8 31 18 00 00       	call   b950 <place_meteor>
      data.l6.spare_time -= 3+slip;
    a11f:	83 c3 03             	add    $0x3,%ebx
    a122:	29 1d 24 52 01 00    	sub    %ebx,0x15224(%rip)        # 1f34c <data+0xc>
}
    a128:	5b                   	pop    %rbx
    a129:	c3                   	ret    
    a12a:	66 0f 1f 44 00 00    	nopw   0x0(%rax,%rax,1)
    if (data.l6.state) {
    a130:	8b 05 0a 52 01 00    	mov    0x1520a(%rip),%eax        # 1f340 <data>
      hole = 2 + uniform_rnd (3);
    a136:	bf 03 00 00 00       	mov    $0x3,%edi
    if (data.l6.state) {
    a13b:	85 c0                	test   %eax,%eax
    a13d:	74 41                	je     a180 <level6+0x130>
      hole = 2 + uniform_rnd (3);
    a13f:	e8 3c 57 00 00       	call   f880 <uniform_rnd>
      data.l6.next_gap = 15 + uniform_rnd (6) - hole;
    a144:	bf 06 00 00 00       	mov    $0x6,%edi
      hole = 2 + uniform_rnd (3);
    a149:	83 c0 02             	add    $0x2,%eax
    a14c:	89 05 1a 52 01 00    	mov    %eax,0x1521a(%rip)        # 1f36c <hole>
      data.l6.next_gap = 15 + uniform_rnd (6) - hole;
    a152:	e8 29 57 00 00       	call   f880 <uniform_rnd>
    a157:	83 c0 0f             	add    $0xf,%eax
    a15a:	2b 05 0c 52 01 00    	sub    0x1520c(%rip),%eax        # 1f36c <hole>
    a160:	89 05 e2 51 01 00    	mov    %eax,0x151e2(%rip)        # 1f348 <data+0x8>
    data.l6.spare_time -= 11;
    a166:	8b 05 e0 51 01 00    	mov    0x151e0(%rip),%eax        # 1f34c <data+0xc>
    a16c:	8d 78 f5             	lea    -0xb(%rax),%edi
    a16f:	89 3d d7 51 01 00    	mov    %edi,0x151d7(%rip)        # 1f34c <data+0xc>
    a175:	e9 58 ff ff ff       	jmp    a0d2 <level6+0x82>
    a17a:	66 0f 1f 44 00 00    	nopw   0x0(%rax,%rax,1)
      if (uniform_rnd (3)) {
    a180:	e8 fb 56 00 00       	call   f880 <uniform_rnd>
    a185:	85 c0                	test   %eax,%eax
    a187:	74 1f                	je     a1a8 <level6+0x158>
        hole = 5;
    a189:	c7 05 d9 51 01 00 05 	movl   $0x5,0x151d9(%rip)        # 1f36c <hole>
    a190:	00 00 00 
        data.l6.next_gap = 9 + uniform_rnd (10);
    a193:	bf 0a 00 00 00       	mov    $0xa,%edi
    a198:	e8 e3 56 00 00       	call   f880 <uniform_rnd>
    a19d:	83 c0 09             	add    $0x9,%eax
    a1a0:	eb be                	jmp    a160 <level6+0x110>
    a1a2:	66 0f 1f 44 00 00    	nopw   0x0(%rax,%rax,1)
        hole = 2 + uniform_rnd (2);
    a1a8:	bf 02 00 00 00       	mov    $0x2,%edi
    a1ad:	e8 ce 56 00 00       	call   f880 <uniform_rnd>
    a1b2:	83 c0 02             	add    $0x2,%eax
    a1b5:	89 05 b1 51 01 00    	mov    %eax,0x151b1(%rip)        # 1f36c <hole>
    a1bb:	b8 09 00 00 00       	mov    $0x9,%eax
    a1c0:	eb 9e                	jmp    a160 <level6+0x110>
    a1c2:	66 66 2e 0f 1f 84 00 	data16 cs nopw 0x0(%rax,%rax,1)
    a1c9:	00 00 00 00 
    a1cd:	0f 1f 00             	nopl   (%rax)

000000000000a1d0 <level3>:
{
    a1d0:	f3 0f 1e fa          	endbr64 
  if (data.l3.state < 0) {
    a1d4:	8b 15 66 51 01 00    	mov    0x15166(%rip),%edx        # 1f340 <data>
{
    a1da:	53                   	push   %rbx
  if (data.l3.state < 0) {
    a1db:	85 d2                	test   %edx,%edx
    a1dd:	0f 88 8d 00 00 00    	js     a270 <level3+0xa0>
  if (is_edge) {
    a1e3:	8b 05 7b 51 01 00    	mov    0x1517b(%rip),%eax        # 1f364 <is_edge>
    a1e9:	85 c0                	test   %eax,%eax
    a1eb:	75 33                	jne    a220 <level3+0x50>
  --data.l3.gap;
    a1ed:	8b 1d 51 51 01 00    	mov    0x15151(%rip),%ebx        # 1f344 <data+0x4>
  if (data.l3.gap == data.l3.pos)  place_meteor ();
    a1f3:	8b 15 4f 51 01 00    	mov    0x1514f(%rip),%edx        # 1f348 <data+0x8>
  --data.l3.gap;
    a1f9:	8d 43 ff             	lea    -0x1(%rbx),%eax
    a1fc:	89 05 42 51 01 00    	mov    %eax,0x15142(%rip)        # 1f344 <data+0x4>
  if (data.l3.gap == data.l3.pos)  place_meteor ();
    a202:	39 d0                	cmp    %edx,%eax
    a204:	0f 84 7e 00 00 00    	je     a288 <level3+0xb8>
  if (data.l3.gap <= 0)  hole = 2;
    a20a:	85 c0                	test   %eax,%eax
    a20c:	7e 02                	jle    a210 <level3+0x40>
}
    a20e:	5b                   	pop    %rbx
    a20f:	c3                   	ret    
  if (data.l3.gap <= 0)  hole = 2;
    a210:	c7 05 52 51 01 00 02 	movl   $0x2,0x15152(%rip)        # 1f36c <hole>
    a217:	00 00 00 
}
    a21a:	5b                   	pop    %rbx
    a21b:	c3                   	ret    
    a21c:	0f 1f 40 00          	nopl   0x0(%rax)
    data.l3.gap = 20 + uniform_rnd (10);
    a220:	bf 0a 00 00 00       	mov    $0xa,%edi
    a225:	e8 56 56 00 00       	call   f880 <uniform_rnd>
    if (ticks > 160)  ++data.l3.state;
    a22a:	81 3d 1c 51 01 00 a0 	cmpl   $0xa0,0x1511c(%rip)        # 1f350 <ticks>
    a231:	00 00 00 
    data.l3.gap = 20 + uniform_rnd (10);
    a234:	8d 58 14             	lea    0x14(%rax),%ebx
    if (ticks > 160)  ++data.l3.state;
    a237:	8b 05 03 51 01 00    	mov    0x15103(%rip),%eax        # 1f340 <data>
    data.l3.gap = 20 + uniform_rnd (10);
    a23d:	89 1d 01 51 01 00    	mov    %ebx,0x15101(%rip)        # 1f344 <data+0x4>
    if (ticks > 160)  ++data.l3.state;
    a243:	7f 5b                	jg     a2a0 <level3+0xd0>
    switch (data.l3.state) {
    a245:	83 f8 01             	cmp    $0x1,%eax
    a248:	0f 84 b2 00 00 00    	je     a300 <level3+0x130>
    a24e:	83 f8 02             	cmp    $0x2,%eax
    a251:	74 7d                	je     a2d0 <level3+0x100>
    a253:	85 c0                	test   %eax,%eax
    a255:	74 59                	je     a2b0 <level3+0xe0>
      bonus[0] += 20;
    a257:	48 8b 05 22 51 01 00 	mov    0x15122(%rip),%rax        # 1f380 <bonus>
      ++level;
    a25e:	83 05 f7 50 01 00 01 	addl   $0x1,0x150f7(%rip)        # 1f35c <level>
  if (data.l3.gap == data.l3.pos)  place_meteor ();
    a265:	8b 15 dd 50 01 00    	mov    0x150dd(%rip),%edx        # 1f348 <data+0x8>
      bonus[0] += 20;
    a26b:	83 00 14             	addl   $0x14,(%rax)
      break;
    a26e:	eb 89                	jmp    a1f9 <level3+0x29>
    place_meteor ();
    a270:	e8 db 16 00 00       	call   b950 <place_meteor>
    data.l3.state = 0;
    a275:	c7 05 c1 50 01 00 00 	movl   $0x0,0x150c1(%rip)        # 1f340 <data>
    a27c:	00 00 00 
    a27f:	e9 5f ff ff ff       	jmp    a1e3 <level3+0x13>
    a284:	0f 1f 40 00          	nopl   0x0(%rax)
  if (data.l3.gap == data.l3.pos)  place_meteor ();
    a288:	e8 c3 16 00 00       	call   b950 <place_meteor>
  if (data.l3.gap <= 0)  hole = 2;
    a28d:	8b 05 b1 50 01 00    	mov    0x150b1(%rip),%eax        # 1f344 <data+0x4>
    a293:	e9 72 ff ff ff       	jmp    a20a <level3+0x3a>
    a298:	0f 1f 84 00 00 00 00 	nopl   0x0(%rax,%rax,1)
    a29f:	00 
    if (ticks > 160)  ++data.l3.state;
    a2a0:	83 c0 01             	add    $0x1,%eax
    a2a3:	89 05 97 50 01 00    	mov    %eax,0x15097(%rip)        # 1f340 <data>
    a2a9:	eb 9a                	jmp    a245 <level3+0x75>
    a2ab:	0f 1f 44 00 00       	nopl   0x0(%rax,%rax,1)
      data.l3.pos = uniform_rnd (5)+1;
    a2b0:	bf 05 00 00 00       	mov    $0x5,%edi
    a2b5:	e8 c6 55 00 00       	call   f880 <uniform_rnd>
  --data.l3.gap;
    a2ba:	8b 1d 84 50 01 00    	mov    0x15084(%rip),%ebx        # 1f344 <data+0x4>
      data.l3.pos = uniform_rnd (5)+1;
    a2c0:	8d 50 01             	lea    0x1(%rax),%edx
    a2c3:	89 15 7f 50 01 00    	mov    %edx,0x1507f(%rip)        # 1f348 <data+0x8>
      break;
    a2c9:	e9 2b ff ff ff       	jmp    a1f9 <level3+0x29>
    a2ce:	66 90                	xchg   %ax,%ax
      data.l3.pos = data.l3.gap - uniform_rnd (2) - 1;
    a2d0:	bf 02 00 00 00       	mov    $0x2,%edi
    a2d5:	e8 a6 55 00 00       	call   f880 <uniform_rnd>
    a2da:	41 89 c0             	mov    %eax,%r8d
    a2dd:	89 d8                	mov    %ebx,%eax
  --data.l3.gap;
    a2df:	8b 1d 5f 50 01 00    	mov    0x1505f(%rip),%ebx        # 1f344 <data+0x4>
      data.l3.pos = data.l3.gap - uniform_rnd (2) - 1;
    a2e5:	44 29 c0             	sub    %r8d,%eax
    a2e8:	8d 50 ff             	lea    -0x1(%rax),%edx
    a2eb:	89 15 57 50 01 00    	mov    %edx,0x15057(%rip)        # 1f348 <data+0x8>
      break;
    a2f1:	e9 03 ff ff ff       	jmp    a1f9 <level3+0x29>
    a2f6:	66 2e 0f 1f 84 00 00 	cs nopw 0x0(%rax,%rax,1)
    a2fd:	00 00 00 
      data.l3.pos = data.l3.gap - uniform_rnd (7) - 1;
    a300:	bf 07 00 00 00       	mov    $0x7,%edi
    a305:	eb ce                	jmp    a2d5 <level3+0x105>
    a307:	66 0f 1f 84 00 00 00 	nopw   0x0(%rax,%rax,1)
    a30e:	00 00 

000000000000a310 <level5>:
{
    a310:	f3 0f 1e fa          	endbr64 
    a314:	48 83 ec 08          	sub    $0x8,%rsp
  if (uniform_rnd (ticks % 20 < 8 ? 4 : 8) == 0)  place_meteor ();
    a318:	48 63 05 31 50 01 00 	movslq 0x15031(%rip),%rax        # 1f350 <ticks>
    a31f:	31 ff                	xor    %edi,%edi
    a321:	48 89 c2             	mov    %rax,%rdx
    a324:	48 69 c0 67 66 66 66 	imul   $0x66666667,%rax,%rax
    a32b:	89 d1                	mov    %edx,%ecx
    a32d:	c1 f9 1f             	sar    $0x1f,%ecx
    a330:	48 c1 f8 23          	sar    $0x23,%rax
    a334:	29 c8                	sub    %ecx,%eax
    a336:	8d 04 80             	lea    (%rax,%rax,4),%eax
    a339:	c1 e0 02             	shl    $0x2,%eax
    a33c:	29 c2                	sub    %eax,%edx
    a33e:	83 fa 08             	cmp    $0x8,%edx
    a341:	40 0f 9d c7          	setge  %dil
    a345:	8d 3c bd 04 00 00 00 	lea    0x4(,%rdi,4),%edi
    a34c:	e8 2f 55 00 00       	call   f880 <uniform_rnd>
    a351:	85 c0                	test   %eax,%eax
    a353:	74 1b                	je     a370 <level5+0x60>
  if (ticks >= 125)  ++level;
    a355:	83 3d f4 4f 01 00 7c 	cmpl   $0x7c,0x14ff4(%rip)        # 1f350 <ticks>
    a35c:	7e 07                	jle    a365 <level5+0x55>
    a35e:	83 05 f7 4f 01 00 01 	addl   $0x1,0x14ff7(%rip)        # 1f35c <level>
}
    a365:	48 83 c4 08          	add    $0x8,%rsp
    a369:	c3                   	ret    
    a36a:	66 0f 1f 44 00 00    	nopw   0x0(%rax,%rax,1)
  if (uniform_rnd (ticks % 20 < 8 ? 4 : 8) == 0)  place_meteor ();
    a370:	e8 db 15 00 00       	call   b950 <place_meteor>
    a375:	eb de                	jmp    a355 <level5+0x45>
    a377:	66 0f 1f 84 00 00 00 	nopw   0x0(%rax,%rax,1)
    a37e:	00 00 

000000000000a380 <level_start>:
};

void
level_start (int initial)
/* Start the game anew with level INITIAL.  */
{
    a380:	f3 0f 1e fa          	endbr64 
  assert (initial >= 0 && initial < LEVEL_COUNT);
    a384:	83 ff 07             	cmp    $0x7,%edi
    a387:	77 21                	ja     a3aa <level_start+0x2a>
  level = initial_level = initial;
    a389:	89 3d c9 4f 01 00    	mov    %edi,0x14fc9(%rip)        # 1f358 <initial_level>
    a38f:	89 3d c7 4f 01 00    	mov    %edi,0x14fc7(%rip)        # 1f35c <level>
  last_level = -1;
    a395:	c7 05 b5 4f 01 00 ff 	movl   $0xffffffff,0x14fb5(%rip)        # 1f354 <last_level>
    a39c:	ff ff ff 
  ticks = 0;
    a39f:	c7 05 a7 4f 01 00 00 	movl   $0x0,0x14fa7(%rip)        # 1f350 <ticks>
    a3a6:	00 00 00 
    a3a9:	c3                   	ret    
{
    a3aa:	50                   	push   %rax
  assert (initial >= 0 && initial < LEVEL_COUNT);
    a3ab:	48 8d 0d be f4 00 00 	lea    0xf4be(%rip),%rcx        # 19870 <__PRETTY_FUNCTION__.4>
    a3b2:	ba 99 01 00 00       	mov    $0x199,%edx
    a3b7:	48 8d 35 be f4 00 00 	lea    0xf4be(%rip),%rsi        # 1987c <__PRETTY_FUNCTION__.4+0xc>
    a3be:	48 8d 3d fb f4 00 00 	lea    0xf4fb(%rip),%rdi        # 198c0 <__PRETTY_FUNCTION__.4+0x50>
    a3c5:	e8 56 d4 ff ff       	call   7820 <__assert_fail@plt>
    a3ca:	66 0f 1f 44 00 00    	nopw   0x0(%rax,%rax,1)

000000000000a3d0 <level_tick>:
level_tick (double t)
/* Advance the current level's state by one.
 * The function must be called every time the ground moved.  It fills
 * in the new values of `ground2[0]' and `bonus[0]'.  The parameter T
 * must be the current game time.  */
{
    a3d0:	f3 0f 1e fa          	endbr64 
    a3d4:	53                   	push   %rbx
    a3d5:	66 0f 28 c8          	movapd %xmm0,%xmm1
    a3d9:	48 83 ec 10          	sub    $0x10,%rsp
  int  ground;

  bonus[0] = 0;
    a3dd:	48 8b 05 9c 4f 01 00 	mov    0x14f9c(%rip),%rax        # 1f380 <bonus>
  if (level != last_level) {
    a3e4:	8b 0d 6a 4f 01 00    	mov    0x14f6a(%rip),%ecx        # 1f354 <last_level>
  bonus[0] = 0;
    a3ea:	c7 00 00 00 00 00    	movl   $0x0,(%rax)
  if (level != last_level) {
    a3f0:	8b 05 66 4f 01 00    	mov    0x14f66(%rip),%eax        # 1f35c <level>
    a3f6:	39 c8                	cmp    %ecx,%eax
    a3f8:	0f 84 c4 00 00 00    	je     a4c2 <level_tick+0xf2>
    double  msg_t;
    level = level % LEVEL_COUNT;
    a3fe:	99                   	cltd   
    hole = 0;
    if (levels[level].init_fn)  levels[level].init_fn ();
    a3ff:	48 8d 1d 3a 44 01 00 	lea    0x1443a(%rip),%rbx        # 1e840 <levels>
    hole = 0;
    a406:	c7 05 5c 4f 01 00 00 	movl   $0x0,0x14f5c(%rip)        # 1f36c <hole>
    a40d:	00 00 00 
    level = level % LEVEL_COUNT;
    a410:	c1 ea 1d             	shr    $0x1d,%edx
    a413:	01 d0                	add    %edx,%eax
    a415:	83 e0 07             	and    $0x7,%eax
    a418:	29 d0                	sub    %edx,%eax
    if (levels[level].init_fn)  levels[level].init_fn ();
    a41a:	48 63 d0             	movslq %eax,%rdx
    level = level % LEVEL_COUNT;
    a41d:	89 05 39 4f 01 00    	mov    %eax,0x14f39(%rip)        # 1f35c <level>
    if (levels[level].init_fn)  levels[level].init_fn ();
    a423:	48 8d 14 52          	lea    (%rdx,%rdx,2),%rdx
    a427:	48 8b 14 d3          	mov    (%rbx,%rdx,8),%rdx
    a42b:	48 85 d2             	test   %rdx,%rdx
    a42e:	74 1a                	je     a44a <level_tick+0x7a>
    a430:	f2 0f 11 44 24 08    	movsd  %xmm0,0x8(%rsp)
    a436:	ff d2                	call   *%rdx
    if (last_level >= 0) {
    a438:	8b 0d 16 4f 01 00    	mov    0x14f16(%rip),%ecx        # 1f354 <last_level>
      ticks = -PAUSE;
      msg_t = t + TICK(car_x + PAUSE/5);
    } else {
      msg_t = t;
    }
    if (levels[level].msg) {
    a43e:	8b 05 18 4f 01 00    	mov    0x14f18(%rip),%eax        # 1f35c <level>
    a444:	f2 0f 10 4c 24 08    	movsd  0x8(%rsp),%xmm1
      msg_t = t;
    a44a:	66 0f 28 c1          	movapd %xmm1,%xmm0
    if (last_level >= 0) {
    a44e:	85 c9                	test   %ecx,%ecx
    a450:	78 27                	js     a479 <level_tick+0xa9>
      msg_t = t + TICK(car_x + PAUSE/5);
    a452:	8b 3d 3c 4f 01 00    	mov    0x14f3c(%rip),%edi        # 1f394 <car_x>
    a458:	66 0f ef c0          	pxor   %xmm0,%xmm0
      ticks = -PAUSE;
    a45c:	c7 05 ea 4e 01 00 d8 	movl   $0xffffffd8,0x14eea(%rip)        # 1f350 <ticks>
    a463:	ff ff ff 
      msg_t = t + TICK(car_x + PAUSE/5);
    a466:	8d 57 08             	lea    0x8(%rdi),%edx
    a469:	f2 0f 2a c2          	cvtsi2sd %edx,%xmm0
    a46d:	f2 0f 59 05 23 f5 00 	mulsd  0xf523(%rip),%xmm0        # 19998 <__PRETTY_FUNCTION__.4+0x128>
    a474:	00 
    a475:	f2 0f 58 c1          	addsd  %xmm1,%xmm0
    if (levels[level].msg) {
    a479:	48 63 d0             	movslq %eax,%rdx
    a47c:	48 8d 14 52          	lea    (%rdx,%rdx,2),%rdx
    a480:	48 8b 74 d3 10       	mov    0x10(%rbx,%rdx,8),%rsi
    a485:	48 85 f6             	test   %rsi,%rsi
    a488:	74 1e                	je     a4a8 <level_tick+0xd8>
      add_event (msg_t, print_hint_h, (void *)levels[level].msg);
    a48a:	48 8d 3d 3f 39 00 00 	lea    0x393f(%rip),%rdi        # ddd0 <print_hint_h>
    a491:	f2 0f 11 4c 24 08    	movsd  %xmm1,0x8(%rsp)
    a497:	e8 d4 35 00 00       	call   da70 <add_event>
    }
    last_level = level;
    a49c:	8b 05 ba 4e 01 00    	mov    0x14eba(%rip),%eax        # 1f35c <level>
    a4a2:	f2 0f 10 4c 24 08    	movsd  0x8(%rsp),%xmm1
    a4a8:	89 05 a6 4e 01 00    	mov    %eax,0x14ea6(%rip)        # 1f354 <last_level>
    is_edge = 1;
    a4ae:	c7 05 ac 4e 01 00 01 	movl   $0x1,0x14eac(%rip)        # 1f364 <is_edge>
    a4b5:	00 00 00 
    crater_seen = 0;
    a4b8:	c7 05 9e 4e 01 00 00 	movl   $0x0,0x14e9e(%rip)        # 1f360 <crater_seen>
    a4bf:	00 00 00 
  }
  if (ticks < 0) {
    a4c2:	8b 35 88 4e 01 00    	mov    0x14e88(%rip),%esi        # 1f350 <ticks>
    a4c8:	85 f6                	test   %esi,%esi
    a4ca:	0f 88 98 00 00 00    	js     a568 <level_tick+0x198>
    ground = '#';
  } else if (hole > 0) {
    a4d0:	8b 05 96 4e 01 00    	mov    0x14e96(%rip),%eax        # 1f36c <hole>
    a4d6:	85 c0                	test   %eax,%eax
    a4d8:	7e 26                	jle    a500 <level_tick+0x130>
    if (! crater_seen) {
    a4da:	8b 0d 80 4e 01 00    	mov    0x14e80(%rip),%ecx        # 1f360 <crater_seen>
    a4e0:	85 c9                	test   %ecx,%ecx
    a4e2:	0f 84 a8 00 00 00    	je     a590 <level_tick+0x1c0>
      crater_seen = 1;
      plateau = 0;
    }

    ground = ' ';
    --hole;
    a4e8:	83 e8 01             	sub    $0x1,%eax
    a4eb:	ba 20 00 00 00       	mov    $0x20,%edx
    a4f0:	89 05 76 4e 01 00    	mov    %eax,0x14e76(%rip)        # 1f36c <hole>
    a4f6:	eb 75                	jmp    a56d <level_tick+0x19d>
    a4f8:	0f 1f 84 00 00 00 00 	nopl   0x0(%rax,%rax,1)
    a4ff:	00 
  } else {
    levels[level].fn (t);
    a500:	48 63 05 55 4e 01 00 	movslq 0x14e55(%rip),%rax        # 1f35c <level>
    a507:	66 0f 28 c1          	movapd %xmm1,%xmm0
    a50b:	48 8d 14 40          	lea    (%rax,%rax,2),%rdx
    a50f:	48 8d 05 2a 43 01 00 	lea    0x1432a(%rip),%rax        # 1e840 <levels>
    a516:	ff 54 d0 08          	call   *0x8(%rax,%rdx,8)
    is_edge = 0;
    crater_seen = 0;

    ground = '#';
    ++plateau;
    a51a:	8b 05 48 4e 01 00    	mov    0x14e48(%rip),%eax        # 1f368 <plateau>
  if (width > 8)  return;
    a520:	8b 15 46 4e 01 00    	mov    0x14e46(%rip),%edx        # 1f36c <hole>
    is_edge = 0;
    a526:	c7 05 34 4e 01 00 00 	movl   $0x0,0x14e34(%rip)        # 1f364 <is_edge>
    a52d:	00 00 00 
    crater_seen = 0;
    a530:	c7 05 26 4e 01 00 00 	movl   $0x0,0x14e26(%rip)        # 1f360 <crater_seen>
    a537:	00 00 00 
    ++plateau;
    a53a:	83 c0 01             	add    $0x1,%eax
    a53d:	89 05 25 4e 01 00    	mov    %eax,0x14e25(%rip)        # 1f368 <plateau>
  if (width > 8)  return;
    a543:	85 d2                	test   %edx,%edx
    a545:	7e 21                	jle    a568 <level_tick+0x198>
    a547:	83 f8 08             	cmp    $0x8,%eax
    a54a:	7f 1c                	jg     a568 <level_tick+0x198>
  bonus[0] += score_table [width];
    a54c:	48 8b 15 2d 4e 01 00 	mov    0x14e2d(%rip),%rdx        # 1f380 <bonus>
    a553:	48 98                	cltq   
    a555:	48 8d 0d 84 f2 00 00 	lea    0xf284(%rip),%rcx        # 197e0 <score_table.0>
    a55c:	8b 04 81             	mov    (%rcx,%rax,4),%eax
    a55f:	01 02                	add    %eax,(%rdx)
    a561:	0f 1f 80 00 00 00 00 	nopl   0x0(%rax)
    a568:	ba 23 00 00 00       	mov    $0x23,%edx
    if (hole > 0)  score_plateau (plateau);
  }

  ground2[0] = ground;
    a56d:	48 8b 05 fc 4d 01 00 	mov    0x14dfc(%rip),%rax        # 1f370 <ground2>
    a574:	88 10                	mov    %dl,(%rax)
  print_buggy(); /* ++pg now the refresh of the car is needed here. */
    a576:	e8 d5 05 00 00       	call   ab50 <print_buggy>

  ++ticks;
    a57b:	83 05 ce 4d 01 00 01 	addl   $0x1,0x14dce(%rip)        # 1f350 <ticks>
}
    a582:	48 83 c4 10          	add    $0x10,%rsp
    a586:	5b                   	pop    %rbx
    a587:	c3                   	ret    
    a588:	0f 1f 84 00 00 00 00 	nopl   0x0(%rax,%rax,1)
    a58f:	00 
  assert (width < 7);
    a590:	83 f8 06             	cmp    $0x6,%eax
    a593:	7f 39                	jg     a5ce <level_tick+0x1fe>
  bonus[0] += score_table [width];
    a595:	48 8b 0d e4 4d 01 00 	mov    0x14de4(%rip),%rcx        # 1f380 <bonus>
    a59c:	48 63 d0             	movslq %eax,%rdx
    a59f:	48 8d 35 6a f2 00 00 	lea    0xf26a(%rip),%rsi        # 19810 <score_table.1>
      is_edge = 1;
    a5a6:	c7 05 b4 4d 01 00 01 	movl   $0x1,0x14db4(%rip)        # 1f364 <is_edge>
    a5ad:	00 00 00 
      crater_seen = 1;
    a5b0:	c7 05 a6 4d 01 00 01 	movl   $0x1,0x14da6(%rip)        # 1f360 <crater_seen>
    a5b7:	00 00 00 
  bonus[0] += score_table [width];
    a5ba:	8b 14 96             	mov    (%rsi,%rdx,4),%edx
      plateau = 0;
    a5bd:	c7 05 a1 4d 01 00 00 	movl   $0x0,0x14da1(%rip)        # 1f368 <plateau>
    a5c4:	00 00 00 
  bonus[0] += score_table [width];
    a5c7:	01 11                	add    %edx,(%rcx)
      plateau = 0;
    a5c9:	e9 1a ff ff ff       	jmp    a4e8 <level_tick+0x118>
  assert (width < 7);
    a5ce:	48 8d 0d 5b f2 00 00 	lea    0xf25b(%rip),%rcx        # 19830 <__PRETTY_FUNCTION__.2>
    a5d5:	ba a3 01 00 00       	mov    $0x1a3,%edx
    a5da:	48 8d 35 9b f2 00 00 	lea    0xf29b(%rip),%rsi        # 1987c <__PRETTY_FUNCTION__.4+0xc>
    a5e1:	48 8d 3d 9c f2 00 00 	lea    0xf29c(%rip),%rdi        # 19884 <__PRETTY_FUNCTION__.4+0x14>
    a5e8:	e8 33 d2 ff ff       	call   7820 <__assert_fail@plt>
    a5ed:	0f 1f 00             	nopl   (%rax)

000000000000a5f0 <current_level>:

int
current_level (void)
/* Return the current level's number as the car sees it.  */
{
    a5f0:	f3 0f 1e fa          	endbr64 
  int  res = (ticks+PAUSE/2 >= car_x) ? level : level - 1;
    a5f4:	8b 0d 56 4d 01 00    	mov    0x14d56(%rip),%ecx        # 1f350 <ticks>
    a5fa:	8b 05 5c 4d 01 00    	mov    0x14d5c(%rip),%eax        # 1f35c <level>
    a600:	8d 51 14             	lea    0x14(%rcx),%edx
    a603:	3b 15 8b 4d 01 00    	cmp    0x14d8b(%rip),%edx        # 1f394 <car_x>
    a609:	0f 9c c2             	setl   %dl
    a60c:	0f b6 d2             	movzbl %dl,%edx
    a60f:	29 d0                	sub    %edx,%eax
  if (res < initial_level)  res = initial_level;
  return  res;
    a611:	8b 15 41 4d 01 00    	mov    0x14d41(%rip),%edx        # 1f358 <initial_level>
    a617:	39 d0                	cmp    %edx,%eax
    a619:	0f 4c c2             	cmovl  %edx,%eax
}
    a61c:	c3                   	ret    
    a61d:	0f 1f 00             	nopl   (%rax)

000000000000a620 <resize_ground>:
static int  ground_width;


void
resize_ground (int clear_it)
{
    a620:	f3 0f 1e fa          	endbr64 
    a624:	41 54                	push   %r12
    a626:	55                   	push   %rbp
    a627:	89 fd                	mov    %edi,%ebp
    a629:	53                   	push   %rbx
  int  cols, i, old;

  cols = COLS;
    a62a:	8b 1d 38 4c 01 00    	mov    0x14c38(%rip),%ebx        # 1f268 <COLS@NCURSES6_TINFO_5.0.19991023>
  if (ground_width != cols) {
    a630:	39 1d 52 4d 01 00    	cmp    %ebx,0x14d52(%rip)        # 1f388 <ground_width>
    a636:	74 4a                	je     a682 <resize_ground+0x62>
    bonus = xrealloc (bonus, cols*sizeof(int));
    a638:	4c 63 e3             	movslq %ebx,%r12
    a63b:	48 8b 3d 3e 4d 01 00 	mov    0x14d3e(%rip),%rdi        # 1f380 <bonus>
    a642:	4a 8d 34 a5 00 00 00 	lea    0x0(,%r12,4),%rsi
    a649:	00 
    a64a:	e8 c1 53 00 00       	call   fa10 <xrealloc>
    ground1 = xrealloc (ground1, cols);
    a64f:	48 8b 3d 22 4d 01 00 	mov    0x14d22(%rip),%rdi        # 1f378 <ground1>
    a656:	4c 89 e6             	mov    %r12,%rsi
    bonus = xrealloc (bonus, cols*sizeof(int));
    a659:	48 89 05 20 4d 01 00 	mov    %rax,0x14d20(%rip)        # 1f380 <bonus>
    ground1 = xrealloc (ground1, cols);
    a660:	e8 ab 53 00 00       	call   fa10 <xrealloc>
    ground2 = xrealloc (ground2, cols);
    a665:	48 8b 3d 04 4d 01 00 	mov    0x14d04(%rip),%rdi        # 1f370 <ground2>
    a66c:	4c 89 e6             	mov    %r12,%rsi
    ground1 = xrealloc (ground1, cols);
    a66f:	48 89 05 02 4d 01 00 	mov    %rax,0x14d02(%rip)        # 1f378 <ground1>
    ground2 = xrealloc (ground2, cols);
    a676:	e8 95 53 00 00       	call   fa10 <xrealloc>
    a67b:	48 89 05 ee 4c 01 00 	mov    %rax,0x14cee(%rip)        # 1f370 <ground2>
  }
  for (i=(clear_it ? 0 : ground_width); i<cols; ++i) {
    a682:	31 d2                	xor    %edx,%edx
    a684:	85 ed                	test   %ebp,%ebp
    a686:	0f 44 15 fb 4c 01 00 	cmove  0x14cfb(%rip),%edx        # 1f388 <ground_width>
    a68d:	39 da                	cmp    %ebx,%edx
    a68f:	7d 47                	jge    a6d8 <resize_ground+0xb8>
    a691:	48 63 c2             	movslq %edx,%rax
    a694:	8d 73 ff             	lea    -0x1(%rbx),%esi
    a697:	29 d6                	sub    %edx,%esi
    a699:	48 8d 50 01          	lea    0x1(%rax),%rdx
    a69d:	48 01 d6             	add    %rdx,%rsi
    a6a0:	eb 0a                	jmp    a6ac <resize_ground+0x8c>
    a6a2:	66 0f 1f 44 00 00    	nopw   0x0(%rax,%rax,1)
    a6a8:	48 83 c2 01          	add    $0x1,%rdx
    bonus[i] = 0;
    a6ac:	48 8b 0d cd 4c 01 00 	mov    0x14ccd(%rip),%rcx        # 1f380 <bonus>
    a6b3:	c7 04 81 00 00 00 00 	movl   $0x0,(%rcx,%rax,4)
    ground1[i] = '#';
    a6ba:	48 8b 0d b7 4c 01 00 	mov    0x14cb7(%rip),%rcx        # 1f378 <ground1>
    a6c1:	c6 04 01 23          	movb   $0x23,(%rcx,%rax,1)
    ground2[i] = '#';
    a6c5:	48 8b 0d a4 4c 01 00 	mov    0x14ca4(%rip),%rcx        # 1f370 <ground2>
    a6cc:	c6 04 01 23          	movb   $0x23,(%rcx,%rax,1)
  for (i=(clear_it ? 0 : ground_width); i<cols; ++i) {
    a6d0:	48 89 d0             	mov    %rdx,%rax
    a6d3:	48 39 d6             	cmp    %rdx,%rsi
    a6d6:	75 d0                	jne    a6a8 <resize_ground+0x88>
  }
  ground_width = cols;
  old = car_base;
  car_base = (cols > 80 ? 80 : cols) - 12;
    a6d8:	b8 50 00 00 00       	mov    $0x50,%eax
  ground_width = cols;
    a6dd:	89 1d a5 4c 01 00    	mov    %ebx,0x14ca5(%rip)        # 1f388 <ground_width>
  old = car_base;
    a6e3:	8b 15 cf 4b 01 00    	mov    0x14bcf(%rip),%edx        # 1f2b8 <car_base>
  car_base = (cols > 80 ? 80 : cols) - 12;
    a6e9:	39 c3                	cmp    %eax,%ebx
    a6eb:	0f 4f d8             	cmovg  %eax,%ebx
    a6ee:	83 eb 0c             	sub    $0xc,%ebx
    a6f1:	89 1d c1 4b 01 00    	mov    %ebx,0x14bc1(%rip)        # 1f2b8 <car_base>
  car_x += (car_base-old);
    a6f7:	29 d3                	sub    %edx,%ebx
    a6f9:	01 1d 95 4c 01 00    	add    %ebx,0x14c95(%rip)        # 1f394 <car_x>
}
    a6ff:	5b                   	pop    %rbx
    a700:	5d                   	pop    %rbp
    a701:	41 5c                	pop    %r12
    a703:	c3                   	ret    
    a704:	66 66 2e 0f 1f 84 00 	data16 cs nopw 0x0(%rax,%rax,1)
    a70b:	00 00 00 00 
    a70f:	90                   	nop

000000000000a710 <print_ground>:

void
print_ground (void)
{
    a710:	f3 0f 1e fa          	endbr64 
    a714:	48 83 ec 08          	sub    $0x8,%rsp
  mvwaddnstr (moon, LINES-4, 0, ground2, ground_width);
    a718:	8b 05 42 4b 01 00    	mov    0x14b42(%rip),%eax        # 1f260 <LINES@NCURSES6_TINFO_5.0.19991023>
    a71e:	48 8b 3d ab 4b 01 00 	mov    0x14bab(%rip),%rdi        # 1f2d0 <moon>
    a725:	31 d2                	xor    %edx,%edx
    a727:	8d 70 fc             	lea    -0x4(%rax),%esi
    a72a:	e8 71 d3 ff ff       	call   7aa0 <wmove@plt>
    a72f:	83 f8 ff             	cmp    $0xffffffff,%eax
    a732:	74 19                	je     a74d <print_ground+0x3d>
    a734:	8b 15 4e 4c 01 00    	mov    0x14c4e(%rip),%edx        # 1f388 <ground_width>
    a73a:	48 8b 35 2f 4c 01 00 	mov    0x14c2f(%rip),%rsi        # 1f370 <ground2>
    a741:	48 8b 3d 88 4b 01 00 	mov    0x14b88(%rip),%rdi        # 1f2d0 <moon>
    a748:	e8 c3 d3 ff ff       	call   7b10 <waddnstr@plt>
  mvwaddnstr (moon, LINES-3, 0, ground1, ground_width);
    a74d:	8b 05 0d 4b 01 00    	mov    0x14b0d(%rip),%eax        # 1f260 <LINES@NCURSES6_TINFO_5.0.19991023>
    a753:	48 8b 3d 76 4b 01 00 	mov    0x14b76(%rip),%rdi        # 1f2d0 <moon>
    a75a:	31 d2                	xor    %edx,%edx
    a75c:	8d 70 fd             	lea    -0x3(%rax),%esi
    a75f:	e8 3c d3 ff ff       	call   7aa0 <wmove@plt>
    a764:	83 f8 ff             	cmp    $0xffffffff,%eax
    a767:	74 19                	je     a782 <print_ground+0x72>
    a769:	8b 15 19 4c 01 00    	mov    0x14c19(%rip),%edx        # 1f388 <ground_width>
    a76f:	48 8b 35 02 4c 01 00 	mov    0x14c02(%rip),%rsi        # 1f378 <ground1>
    a776:	48 8b 3d 53 4b 01 00 	mov    0x14b53(%rip),%rdi        # 1f2d0 <moon>
    a77d:	e8 8e d3 ff ff       	call   7b10 <waddnstr@plt>
  wnoutrefresh (moon);
    a782:	48 8b 3d 47 4b 01 00 	mov    0x14b47(%rip),%rdi        # 1f2d0 <moon>
}
    a789:	48 83 c4 08          	add    $0x8,%rsp
  wnoutrefresh (moon);
    a78d:	e9 fe d1 ff ff       	jmp    7990 <wnoutrefresh@plt>
    a792:	66 66 2e 0f 1f 84 00 	data16 cs nopw 0x0(%rax,%rax,1)
    a799:	00 00 00 00 
    a79d:	0f 1f 00             	nopl   (%rax)

000000000000a7a0 <scroll_handler>:
  wnoutrefresh (status);
}

static void
scroll_handler (game_time t, void *client_data)
{
    a7a0:	f3 0f 1e fa          	endbr64 
    a7a4:	41 54                	push   %r12
    a7a6:	53                   	push   %rbx
    a7a7:	66 48 0f 7e c3       	movq   %xmm0,%rbx
    a7ac:	48 83 ec 08          	sub    $0x8,%rsp
  if (crash_detected <= 2) {
    a7b0:	8b 05 5e 4b 01 00    	mov    0x14b5e(%rip),%eax        # 1f314 <crash_detected>
    a7b6:	83 f8 02             	cmp    $0x2,%eax
    a7b9:	7e 55                	jle    a810 <scroll_handler+0x70>

    if (crash_detected)  shift_buggy (1);
  }

  if (crash_detected || crash_check ()) {
    ++crash_detected;
    a7bb:	83 c0 01             	add    $0x1,%eax
    a7be:	89 05 50 4b 01 00    	mov    %eax,0x14b50(%rip)        # 1f314 <crash_detected>
    if (crash_detected > 35)  mode_change (crash_mode, 1);
    a7c4:	83 f8 23             	cmp    $0x23,%eax
    a7c7:	0f 8f 13 01 00 00    	jg     a8e0 <scroll_handler+0x140>
  }

  if (can_jump () && stakes) {
    a7cd:	e8 1e 08 00 00       	call   aff0 <can_jump>
    a7d2:	85 c0                	test   %eax,%eax
    a7d4:	74 0e                	je     a7e4 <scroll_handler+0x44>
    a7d6:	8b 3d 34 4b 01 00    	mov    0x14b34(%rip),%edi        # 1f310 <stakes>
    a7dc:	85 ff                	test   %edi,%edi
    a7de:	0f 85 1c 01 00 00    	jne    a900 <scroll_handler+0x160>
    adjust_score (stakes);
    stakes = 0;
  }

  add_event (t+TICK(1), scroll_handler, NULL);
    a7e4:	66 48 0f 6e c3       	movq   %rbx,%xmm0
    a7e9:	f2 0f 58 05 a7 f1 00 	addsd  0xf1a7(%rip),%xmm0        # 19998 <__PRETTY_FUNCTION__.4+0x128>
    a7f0:	00 
}
    a7f1:	48 83 c4 08          	add    $0x8,%rsp
  add_event (t+TICK(1), scroll_handler, NULL);
    a7f5:	31 f6                	xor    %esi,%esi
}
    a7f7:	5b                   	pop    %rbx
  add_event (t+TICK(1), scroll_handler, NULL);
    a7f8:	48 8d 3d a1 ff ff ff 	lea    -0x5f(%rip),%rdi        # a7a0 <scroll_handler>
}
    a7ff:	41 5c                	pop    %r12
  add_event (t+TICK(1), scroll_handler, NULL);
    a801:	e9 6a 32 00 00       	jmp    da70 <add_event>
    a806:	66 2e 0f 1f 84 00 00 	cs nopw 0x0(%rax,%rax,1)
    a80d:	00 00 00 
    scroll_meteors ();
    a810:	e8 9b 0f 00 00       	call   b7b0 <scroll_meteors>
    memmove (bonus+1, bonus, (ground_width-1)*sizeof(int));
    a815:	8b 05 6d 4b 01 00    	mov    0x14b6d(%rip),%eax        # 1f388 <ground_width>
    a81b:	48 8b 35 5e 4b 01 00 	mov    0x14b5e(%rip),%rsi        # 1f380 <bonus>
    a822:	44 8d 60 ff          	lea    -0x1(%rax),%r12d
    a826:	48 8d 7e 04          	lea    0x4(%rsi),%rdi
    a82a:	4d 63 e4             	movslq %r12d,%r12
    a82d:	4a 8d 14 a5 00 00 00 	lea    0x0(,%r12,4),%rdx
    a834:	00 
}

__fortify_function void *
__NTH (memmove (void *__dest, const void *__src, size_t __len))
{
  return __builtin___memmove_chk (__dest, __src, __len,
    a835:	e8 46 d2 ff ff       	call   7a80 <memmove@plt>
    memmove (ground2+1, ground2, ground_width-1);
    a83a:	48 8b 35 2f 4b 01 00 	mov    0x14b2f(%rip),%rsi        # 1f370 <ground2>
    a841:	4c 89 e2             	mov    %r12,%rdx
    a844:	48 8d 7e 01          	lea    0x1(%rsi),%rdi
    a848:	e8 33 d2 ff ff       	call   7a80 <memmove@plt>
    level_tick (t);
    a84d:	66 48 0f 6e c3       	movq   %rbx,%xmm0
    a852:	e8 79 fb ff ff       	call   a3d0 <level_tick>
    print_ground ();
    a857:	e8 b4 fe ff ff       	call   a710 <print_ground>
  mvwprintw (status, 0, car_base-32, "level: %d", current_level () + 1);
    a85c:	e8 8f fd ff ff       	call   a5f0 <current_level>
    a861:	8b 0d 51 4a 01 00    	mov    0x14a51(%rip),%ecx        # 1f2b8 <car_base>
    a867:	48 8b 3d 5a 4a 01 00 	mov    0x14a5a(%rip),%rdi        # 1f2c8 <status>
    a86e:	31 f6                	xor    %esi,%esi
    a870:	44 8d 40 01          	lea    0x1(%rax),%r8d
    a874:	31 c0                	xor    %eax,%eax
    a876:	8d 51 e0             	lea    -0x20(%rcx),%edx
    a879:	48 8d 0d 20 f1 00 00 	lea    0xf120(%rip),%rcx        # 199a0 <__PRETTY_FUNCTION__.4+0x130>
    a880:	e8 7b cf ff ff       	call   7800 <mvwprintw@plt>
  wnoutrefresh (status);
    a885:	48 8b 3d 3c 4a 01 00 	mov    0x14a3c(%rip),%rdi        # 1f2c8 <status>
    a88c:	e8 ff d0 ff ff       	call   7990 <wnoutrefresh@plt>
    stakes += bonus[car_x + 7];
    a891:	48 63 15 fc 4a 01 00 	movslq 0x14afc(%rip),%rdx        # 1f394 <car_x>
    a898:	48 8b 05 e1 4a 01 00 	mov    0x14ae1(%rip),%rax        # 1f380 <bonus>
    a89f:	8b 44 90 1c          	mov    0x1c(%rax,%rdx,4),%eax
    a8a3:	01 05 67 4a 01 00    	add    %eax,0x14a67(%rip)        # 1f310 <stakes>
    if (crash_detected)  shift_buggy (1);
    a8a9:	8b 05 65 4a 01 00    	mov    0x14a65(%rip),%eax        # 1f314 <crash_detected>
    a8af:	85 c0                	test   %eax,%eax
    a8b1:	75 65                	jne    a918 <scroll_handler+0x178>
  if (crash_detected || crash_check ()) {
    a8b3:	e8 48 07 00 00       	call   b000 <crash_check>
    a8b8:	85 c0                	test   %eax,%eax
    a8ba:	0f 84 0d ff ff ff    	je     a7cd <scroll_handler+0x2d>
    ++crash_detected;
    a8c0:	8b 05 4e 4a 01 00    	mov    0x14a4e(%rip),%eax        # 1f314 <crash_detected>
    a8c6:	83 c0 01             	add    $0x1,%eax
    a8c9:	89 05 45 4a 01 00    	mov    %eax,0x14a45(%rip)        # 1f314 <crash_detected>
    if (crash_detected > 35)  mode_change (crash_mode, 1);
    a8cf:	83 f8 23             	cmp    $0x23,%eax
    a8d2:	0f 8e f5 fe ff ff    	jle    a7cd <scroll_handler+0x2d>
    a8d8:	0f 1f 84 00 00 00 00 	nopl   0x0(%rax,%rax,1)
    a8df:	00 
    a8e0:	48 8b 3d 31 4a 01 00 	mov    0x14a31(%rip),%rdi        # 1f318 <crash_mode>
    a8e7:	be 01 00 00 00       	mov    $0x1,%esi
    a8ec:	e8 af de ff ff       	call   87a0 <mode_change>
    a8f1:	e9 d7 fe ff ff       	jmp    a7cd <scroll_handler+0x2d>
    a8f6:	66 2e 0f 1f 84 00 00 	cs nopw 0x0(%rax,%rax,1)
    a8fd:	00 00 00 
    adjust_score (stakes);
    a900:	e8 bb eb ff ff       	call   94c0 <adjust_score>
    stakes = 0;
    a905:	c7 05 01 4a 01 00 00 	movl   $0x0,0x14a01(%rip)        # 1f310 <stakes>
    a90c:	00 00 00 
    a90f:	e9 d0 fe ff ff       	jmp    a7e4 <scroll_handler+0x44>
    a914:	0f 1f 40 00          	nopl   0x0(%rax)
    if (crash_detected)  shift_buggy (1);
    a918:	bf 01 00 00 00       	mov    $0x1,%edi
    a91d:	e8 ce 05 00 00       	call   aef0 <shift_buggy>
  if (crash_detected || crash_check ()) {
    a922:	8b 05 ec 49 01 00    	mov    0x149ec(%rip),%eax        # 1f314 <crash_detected>
    a928:	85 c0                	test   %eax,%eax
    a92a:	74 87                	je     a8b3 <scroll_handler+0x113>
    a92c:	e9 8a fe ff ff       	jmp    a7bb <scroll_handler+0x1b>
    a931:	66 66 2e 0f 1f 84 00 	data16 cs nopw 0x0(%rax,%rax,1)
    a938:	00 00 00 00 
    a93c:	0f 1f 40 00          	nopl   0x0(%rax)

000000000000a940 <start_scrolling>:

void
start_scrolling (double t)
{
    a940:	f3 0f 1e fa          	endbr64 
  add_event (t, scroll_handler, NULL);
    a944:	31 f6                	xor    %esi,%esi
    a946:	48 8d 3d 53 fe ff ff 	lea    -0x1ad(%rip),%rdi        # a7a0 <scroll_handler>
    a94d:	e9 1e 31 00 00       	jmp    da70 <add_event>
    a952:	66 2e 0f 1f 84 00 00 	cs nopw 0x0(%rax,%rax,1)
    a959:	00 00 00 
    a95c:	0f 1f 40 00          	nopl   0x0(%rax)

000000000000a960 <wheel_handler>:

static int wheel_x, wheel_y;

static void
wheel_handler (game_time t, void *client_data)
{
    a960:	f3 0f 1e fa          	endbr64 
    a964:	41 56                	push   %r14
    a966:	66 49 0f 7e c6       	movq   %xmm0,%r14
    a96b:	53                   	push   %rbx
    a96c:	bb 01 00 00 00       	mov    $0x1,%ebx
    a971:	48 83 ec 08          	sub    $0x8,%rsp
  int  wheel_crash;

  wheel_crash = (wheel_x<car_x && wheel_y==LINES-5 && ground2[wheel_x]==' ');
    a975:	8b 15 21 4a 01 00    	mov    0x14a21(%rip),%edx        # 1f39c <wheel_x>
    a97b:	8b 05 13 4a 01 00    	mov    0x14a13(%rip),%eax        # 1f394 <car_x>
    a981:	39 c2                	cmp    %eax,%edx
    a983:	7d 38                	jge    a9bd <wheel_handler+0x5d>
    a985:	8b 05 d5 48 01 00    	mov    0x148d5(%rip),%eax        # 1f260 <LINES@NCURSES6_TINFO_5.0.19991023>
    a98b:	8b 35 07 4a 01 00    	mov    0x14a07(%rip),%esi        # 1f398 <wheel_y>
    a991:	83 e8 05             	sub    $0x5,%eax
    a994:	39 f0                	cmp    %esi,%eax
    a996:	0f 84 dc 00 00 00    	je     aa78 <wheel_handler+0x118>
  if (wheel_x < car_x)  mvwaddch (moon, wheel_y, wheel_x, ' ');
    a99c:	48 8b 3d 2d 49 01 00 	mov    0x1492d(%rip),%rdi        # 1f2d0 <moon>
    a9a3:	e8 f8 d0 ff ff       	call   7aa0 <wmove@plt>
    a9a8:	83 f8 ff             	cmp    $0xffffffff,%eax
    a9ab:	0f 85 df 00 00 00    	jne    aa90 <wheel_handler+0x130>
  wheel_x -= 1;
    a9b1:	8b 15 e5 49 01 00    	mov    0x149e5(%rip),%edx        # 1f39c <wheel_x>
  switch (car_x - wheel_x) {
    a9b7:	8b 05 d7 49 01 00    	mov    0x149d7(%rip),%eax        # 1f394 <car_x>
  wheel_x -= 1;
    a9bd:	83 ea 01             	sub    $0x1,%edx
  case 1:
  case 5:
  case 7:
  case 8:
  case 9:
    wheel_y = LINES - 6;
    a9c0:	8b 0d 9a 48 01 00    	mov    0x1489a(%rip),%ecx        # 1f260 <LINES@NCURSES6_TINFO_5.0.19991023>
  switch (car_x - wheel_x) {
    a9c6:	29 d0                	sub    %edx,%eax
  wheel_x -= 1;
    a9c8:	89 15 ce 49 01 00    	mov    %edx,0x149ce(%rip)        # 1f39c <wheel_x>
  switch (car_x - wheel_x) {
    a9ce:	83 f8 04             	cmp    $0x4,%eax
    a9d1:	7f 3d                	jg     aa10 <wheel_handler+0xb0>
    break;
  case 2:
  case 3:
  case 4:
    wheel_y = LINES - 7;
    a9d3:	8d 71 f9             	lea    -0x7(%rcx),%esi
  switch (car_x - wheel_x) {
    a9d6:	83 f8 01             	cmp    $0x1,%eax
    a9d9:	7f 05                	jg     a9e0 <wheel_handler+0x80>
    a9db:	74 40                	je     aa1d <wheel_handler+0xbd>
    break;
  default:
    wheel_y = LINES - 5;
    a9dd:	8d 71 fb             	lea    -0x5(%rcx),%esi
    wheel_y = LINES - 6;
    a9e0:	89 35 b2 49 01 00    	mov    %esi,0x149b2(%rip)        # 1f398 <wheel_y>
    break;
  }
  if (wheel_x >= 0 && ! wheel_crash) {
    mvwaddch (moon, wheel_y, wheel_x, 'o');
    a9e6:	48 8b 3d e3 48 01 00 	mov    0x148e3(%rip),%rdi        # 1f2d0 <moon>
  if (wheel_x >= 0 && ! wheel_crash) {
    a9ed:	85 d2                	test   %edx,%edx
    a9ef:	78 04                	js     a9f5 <wheel_handler+0x95>
    a9f1:	84 db                	test   %bl,%bl
    a9f3:	75 33                	jne    aa28 <wheel_handler+0xc8>
    add_event (t+TICK(2.3), wheel_handler, NULL);
  } else {
    crash_detected = 1000;
    a9f5:	c7 05 15 49 01 00 e8 	movl   $0x3e8,0x14915(%rip)        # 1f314 <crash_detected>
    a9fc:	03 00 00 
  }
  wnoutrefresh (moon);
}
    a9ff:	48 83 c4 08          	add    $0x8,%rsp
    aa03:	5b                   	pop    %rbx
    aa04:	41 5e                	pop    %r14
  wnoutrefresh (moon);
    aa06:	e9 85 cf ff ff       	jmp    7990 <wnoutrefresh@plt>
    aa0b:	0f 1f 44 00 00       	nopl   0x0(%rax,%rax,1)
  switch (car_x - wheel_x) {
    aa10:	83 f8 05             	cmp    $0x5,%eax
    aa13:	74 08                	je     aa1d <wheel_handler+0xbd>
    aa15:	83 e8 07             	sub    $0x7,%eax
    aa18:	83 f8 02             	cmp    $0x2,%eax
    aa1b:	77 c0                	ja     a9dd <wheel_handler+0x7d>
    wheel_y = LINES - 6;
    aa1d:	8d 71 fa             	lea    -0x6(%rcx),%esi
    break;
    aa20:	eb be                	jmp    a9e0 <wheel_handler+0x80>
    aa22:	66 0f 1f 44 00 00    	nopw   0x0(%rax,%rax,1)
    mvwaddch (moon, wheel_y, wheel_x, 'o');
    aa28:	e8 73 d0 ff ff       	call   7aa0 <wmove@plt>
    aa2d:	83 f8 ff             	cmp    $0xffffffff,%eax
    aa30:	74 11                	je     aa43 <wheel_handler+0xe3>
    aa32:	48 8b 3d 97 48 01 00 	mov    0x14897(%rip),%rdi        # 1f2d0 <moon>
    aa39:	be 6f 00 00 00       	mov    $0x6f,%esi
    aa3e:	e8 1d cf ff ff       	call   7960 <waddch@plt>
    add_event (t+TICK(2.3), wheel_handler, NULL);
    aa43:	66 49 0f 6e c6       	movq   %r14,%xmm0
    aa48:	f2 0f 58 05 28 f0 00 	addsd  0xf028(%rip),%xmm0        # 19a78 <__PRETTY_FUNCTION__.0+0xc>
    aa4f:	00 
    aa50:	48 8d 3d 09 ff ff ff 	lea    -0xf7(%rip),%rdi        # a960 <wheel_handler>
    aa57:	31 f6                	xor    %esi,%esi
    aa59:	e8 12 30 00 00       	call   da70 <add_event>
    aa5e:	48 8b 3d 6b 48 01 00 	mov    0x1486b(%rip),%rdi        # 1f2d0 <moon>
}
    aa65:	48 83 c4 08          	add    $0x8,%rsp
    aa69:	5b                   	pop    %rbx
    aa6a:	41 5e                	pop    %r14
  wnoutrefresh (moon);
    aa6c:	e9 1f cf ff ff       	jmp    7990 <wnoutrefresh@plt>
    aa71:	0f 1f 80 00 00 00 00 	nopl   0x0(%rax)
  wheel_crash = (wheel_x<car_x && wheel_y==LINES-5 && ground2[wheel_x]==' ');
    aa78:	48 8b 0d f1 48 01 00 	mov    0x148f1(%rip),%rcx        # 1f370 <ground2>
    aa7f:	48 63 c2             	movslq %edx,%rax
    aa82:	80 3c 01 20          	cmpb   $0x20,(%rcx,%rax,1)
    aa86:	0f 95 c3             	setne  %bl
    aa89:	e9 0e ff ff ff       	jmp    a99c <wheel_handler+0x3c>
    aa8e:	66 90                	xchg   %ax,%ax
  if (wheel_x < car_x)  mvwaddch (moon, wheel_y, wheel_x, ' ');
    aa90:	48 8b 3d 39 48 01 00 	mov    0x14839(%rip),%rdi        # 1f2d0 <moon>
    aa97:	be 20 00 00 00       	mov    $0x20,%esi
    aa9c:	e8 bf ce ff ff       	call   7960 <waddch@plt>
  wheel_x -= 1;
    aaa1:	8b 15 f5 48 01 00    	mov    0x148f5(%rip),%edx        # 1f39c <wheel_x>
  switch (car_x - wheel_x) {
    aaa7:	8b 05 e7 48 01 00    	mov    0x148e7(%rip),%eax        # 1f394 <car_x>
    aaad:	e9 0b ff ff ff       	jmp    a9bd <wheel_handler+0x5d>
    aab2:	66 66 2e 0f 1f 84 00 	data16 cs nopw 0x0(%rax,%rax,1)
    aab9:	00 00 00 00 
    aabd:	0f 1f 00             	nopl   (%rax)

000000000000aac0 <initialise_buggy>:
{
    aac0:	f3 0f 1e fa          	endbr64 
    aac4:	55                   	push   %rbp
  state = sz_empty;
    aac5:	48 8d 05 14 47 01 00 	lea    0x14714(%rip),%rax        # 1f1e0 <sz_empty>
  for (y=5; y<9; ++y)  mvwaddstr (moon, LINES-y, car_x, "       ");
    aacc:	48 8d 2d d7 ee 00 00 	lea    0xeed7(%rip),%rbp        # 199aa <__PRETTY_FUNCTION__.4+0x13a>
{
    aad3:	53                   	push   %rbx
  for (y=5; y<9; ++y)  mvwaddstr (moon, LINES-y, car_x, "       ");
    aad4:	bb 05 00 00 00       	mov    $0x5,%ebx
{
    aad9:	48 83 ec 08          	sub    $0x8,%rsp
  state = sz_empty;
    aadd:	48 89 05 c4 48 01 00 	mov    %rax,0x148c4(%rip)        # 1f3a8 <state>
  for (y=5; y<9; ++y)  mvwaddstr (moon, LINES-y, car_x, "       ");
    aae4:	8b 35 76 47 01 00    	mov    0x14776(%rip),%esi        # 1f260 <LINES@NCURSES6_TINFO_5.0.19991023>
    aaea:	8b 15 a4 48 01 00    	mov    0x148a4(%rip),%edx        # 1f394 <car_x>
    aaf0:	48 8b 3d d9 47 01 00 	mov    0x147d9(%rip),%rdi        # 1f2d0 <moon>
    aaf7:	29 de                	sub    %ebx,%esi
    aaf9:	e8 a2 cf ff ff       	call   7aa0 <wmove@plt>
    aafe:	83 f8 ff             	cmp    $0xffffffff,%eax
    ab01:	74 14                	je     ab17 <initialise_buggy+0x57>
    ab03:	48 8b 3d c6 47 01 00 	mov    0x147c6(%rip),%rdi        # 1f2d0 <moon>
    ab0a:	ba ff ff ff ff       	mov    $0xffffffff,%edx
    ab0f:	48 89 ee             	mov    %rbp,%rsi
    ab12:	e8 f9 cf ff ff       	call   7b10 <waddnstr@plt>
    ab17:	83 c3 01             	add    $0x1,%ebx
    ab1a:	83 fb 09             	cmp    $0x9,%ebx
    ab1d:	75 c5                	jne    aae4 <initialise_buggy+0x24>
  car_x = car_base;
    ab1f:	8b 05 93 47 01 00    	mov    0x14793(%rip),%eax        # 1f2b8 <car_base>
  wnoutrefresh (moon);
    ab25:	48 8b 3d a4 47 01 00 	mov    0x147a4(%rip),%rdi        # 1f2d0 <moon>
  car_x = car_base;
    ab2c:	89 05 62 48 01 00    	mov    %eax,0x14862(%rip)        # 1f394 <car_x>
  car_y = state->y;
    ab32:	48 8b 05 6f 48 01 00 	mov    0x1486f(%rip),%rax        # 1f3a8 <state>
    ab39:	8b 40 04             	mov    0x4(%rax),%eax
    ab3c:	89 05 4e 48 01 00    	mov    %eax,0x1484e(%rip)        # 1f390 <car_y>
}
    ab42:	48 83 c4 08          	add    $0x8,%rsp
    ab46:	5b                   	pop    %rbx
    ab47:	5d                   	pop    %rbp
  wnoutrefresh (moon);
    ab48:	e9 43 ce ff ff       	jmp    7990 <wnoutrefresh@plt>
    ab4d:	0f 1f 00             	nopl   (%rax)

000000000000ab50 <print_buggy>:
{
    ab50:	f3 0f 1e fa          	endbr64 
    ab54:	55                   	push   %rbp
    ab55:	53                   	push   %rbx
    ab56:	48 83 ec 08          	sub    $0x8,%rsp
    mvwaddstr (moon, LINES-car_y-1, car_x, "       ");
    ab5a:	8b 15 34 48 01 00    	mov    0x14834(%rip),%edx        # 1f394 <car_x>
  enum car_state  n = state->n;
    ab60:	48 8b 05 41 48 01 00 	mov    0x14841(%rip),%rax        # 1f3a8 <state>
    mvwaddstr (moon, LINES-car_y-1, car_x, "       ");
    ab67:	8b 35 f3 46 01 00    	mov    0x146f3(%rip),%esi        # 1f260 <LINES@NCURSES6_TINFO_5.0.19991023>
    ab6d:	48 8b 3d 5c 47 01 00 	mov    0x1475c(%rip),%rdi        # 1f2d0 <moon>
  enum car_state  n = state->n;
    ab74:	8b 18                	mov    (%rax),%ebx
  int  y = state->y;
    ab76:	8b 68 04             	mov    0x4(%rax),%ebp
  if (y < car_y) {
    ab79:	8b 05 11 48 01 00    	mov    0x14811(%rip),%eax        # 1f390 <car_y>
    ab7f:	39 e8                	cmp    %ebp,%eax
    ab81:	0f 8f 21 02 00 00    	jg     ada8 <print_buggy+0x258>
  } else if (y > car_y) {
    ab87:	0f 8c f3 01 00 00    	jl     ad80 <print_buggy+0x230>
    mvwaddstr (moon, LINES-y-1, car_x, image[n+nextG][0]);
    ab8d:	29 ee                	sub    %ebp,%esi
  car_y = y;
    ab8f:	89 2d fb 47 01 00    	mov    %ebp,0x147fb(%rip)        # 1f390 <car_y>
    mvwaddstr (moon, LINES-y-1, car_x, image[n+nextG][0]);
    ab95:	83 ee 01             	sub    $0x1,%esi
  if (n==car_NORMAL)  {
    ab98:	85 db                	test   %ebx,%ebx
    ab9a:	75 74                	jne    ac10 <print_buggy+0xc0>
    mvwaddstr (moon, LINES-y-1, car_x, image[n+nextG][0]);
    ab9c:	e8 ff ce ff ff       	call   7aa0 <wmove@plt>
    aba1:	83 f8 ff             	cmp    $0xffffffff,%eax
    aba4:	0f 85 4e 01 00 00    	jne    acf8 <print_buggy+0x1a8>
    mvwaddstr (moon, LINES-y, car_x, image[n+nextG][1]);
    abaa:	8b 35 b0 46 01 00    	mov    0x146b0(%rip),%esi        # 1f260 <LINES@NCURSES6_TINFO_5.0.19991023>
    abb0:	8b 15 de 47 01 00    	mov    0x147de(%rip),%edx        # 1f394 <car_x>
    abb6:	48 8b 3d 13 47 01 00 	mov    0x14713(%rip),%rdi        # 1f2d0 <moon>
    abbd:	29 ee                	sub    %ebp,%esi
    abbf:	e8 dc ce ff ff       	call   7aa0 <wmove@plt>
    abc4:	83 f8 ff             	cmp    $0xffffffff,%eax
    abc7:	0f 85 fb 00 00 00    	jne    acc8 <print_buggy+0x178>
  nextG++; if (nextG>3) nextG=0;
    abcd:	8b 05 cd 47 01 00    	mov    0x147cd(%rip),%eax        # 1f3a0 <nextG>
    abd3:	83 c0 01             	add    $0x1,%eax
    abd6:	89 05 c4 47 01 00    	mov    %eax,0x147c4(%rip)        # 1f3a0 <nextG>
    abdc:	83 f8 03             	cmp    $0x3,%eax
    abdf:	0f 8e ce 00 00 00    	jle    acb3 <print_buggy+0x163>
    abe5:	c7 05 b1 47 01 00 00 	movl   $0x0,0x147b1(%rip)        # 1f3a0 <nextG>
    abec:	00 00 00 
    if (ground2[car_x+1] == ' ')  mvwaddch (moon, LINES-4, car_x+1, 'o');
    abef:	48 8b 3d da 46 01 00 	mov    0x146da(%rip),%rdi        # 1f2d0 <moon>
  if (n == car_BROKEN) {
    abf6:	83 fb 08             	cmp    $0x8,%ebx
    abf9:	74 66                	je     ac61 <print_buggy+0x111>
}
    abfb:	48 83 c4 08          	add    $0x8,%rsp
    abff:	5b                   	pop    %rbx
    ac00:	5d                   	pop    %rbp
  wnoutrefresh (moon);
    ac01:	e9 8a cd ff ff       	jmp    7990 <wnoutrefresh@plt>
    ac06:	66 2e 0f 1f 84 00 00 	cs nopw 0x0(%rax,%rax,1)
    ac0d:	00 00 00 
    mvwaddstr (moon, LINES-y-1, car_x, image[n][0]);
    ac10:	e8 8b ce ff ff       	call   7aa0 <wmove@plt>
    ac15:	83 f8 ff             	cmp    $0xffffffff,%eax
    ac18:	0f 85 32 01 00 00    	jne    ad50 <print_buggy+0x200>
    mvwaddstr (moon, LINES-y, car_x, image[n][1]);
    ac1e:	8b 35 3c 46 01 00    	mov    0x1463c(%rip),%esi        # 1f260 <LINES@NCURSES6_TINFO_5.0.19991023>
    ac24:	8b 15 6a 47 01 00    	mov    0x1476a(%rip),%edx        # 1f394 <car_x>
    ac2a:	48 8b 3d 9f 46 01 00 	mov    0x1469f(%rip),%rdi        # 1f2d0 <moon>
    ac31:	29 ee                	sub    %ebp,%esi
    ac33:	e8 68 ce ff ff       	call   7aa0 <wmove@plt>
    ac38:	83 f8 ff             	cmp    $0xffffffff,%eax
    ac3b:	0f 85 e7 00 00 00    	jne    ad28 <print_buggy+0x1d8>
  nextG++; if (nextG>3) nextG=0;
    ac41:	8b 05 59 47 01 00    	mov    0x14759(%rip),%eax        # 1f3a0 <nextG>
    ac47:	83 c0 01             	add    $0x1,%eax
    ac4a:	89 05 50 47 01 00    	mov    %eax,0x14750(%rip)        # 1f3a0 <nextG>
    ac50:	83 f8 03             	cmp    $0x3,%eax
    ac53:	7f 90                	jg     abe5 <print_buggy+0x95>
    if (ground2[car_x+1] == ' ')  mvwaddch (moon, LINES-4, car_x+1, 'o');
    ac55:	48 8b 3d 74 46 01 00 	mov    0x14674(%rip),%rdi        # 1f2d0 <moon>
  if (n == car_BROKEN) {
    ac5c:	83 fb 08             	cmp    $0x8,%ebx
    ac5f:	75 9a                	jne    abfb <print_buggy+0xab>
    if (ground2[car_x+1] == ' ')  mvwaddch (moon, LINES-4, car_x+1, 'o');
    ac61:	48 63 05 2c 47 01 00 	movslq 0x1472c(%rip),%rax        # 1f394 <car_x>
    ac68:	48 8b 0d 01 47 01 00 	mov    0x14701(%rip),%rcx        # 1f370 <ground2>
    ac6f:	80 7c 01 01 20       	cmpb   $0x20,0x1(%rcx,%rax,1)
    ac74:	48 89 c2             	mov    %rax,%rdx
    ac77:	0f 84 5b 01 00 00    	je     add8 <print_buggy+0x288>
    if (ground2[car_x+5] == ' ')  mvwaddch (moon, LINES-4, car_x+5, 'o');
    ac7d:	80 7c 01 05 20       	cmpb   $0x20,0x5(%rcx,%rax,1)
    ac82:	0f 85 73 ff ff ff    	jne    abfb <print_buggy+0xab>
    ac88:	8b 05 d2 45 01 00    	mov    0x145d2(%rip),%eax        # 1f260 <LINES@NCURSES6_TINFO_5.0.19991023>
    ac8e:	83 c2 05             	add    $0x5,%edx
    ac91:	8d 70 fc             	lea    -0x4(%rax),%esi
    ac94:	e8 07 ce ff ff       	call   7aa0 <wmove@plt>
    ac99:	48 8b 3d 30 46 01 00 	mov    0x14630(%rip),%rdi        # 1f2d0 <moon>
    aca0:	83 f8 ff             	cmp    $0xffffffff,%eax
    aca3:	0f 84 52 ff ff ff    	je     abfb <print_buggy+0xab>
    aca9:	be 6f 00 00 00       	mov    $0x6f,%esi
    acae:	e8 ad cc ff ff       	call   7960 <waddch@plt>
    acb3:	48 8b 3d 16 46 01 00 	mov    0x14616(%rip),%rdi        # 1f2d0 <moon>
}
    acba:	48 83 c4 08          	add    $0x8,%rsp
    acbe:	5b                   	pop    %rbx
    acbf:	5d                   	pop    %rbp
  wnoutrefresh (moon);
    acc0:	e9 cb cc ff ff       	jmp    7990 <wnoutrefresh@plt>
    acc5:	0f 1f 00             	nopl   (%rax)
    mvwaddstr (moon, LINES-y, car_x, image[n+nextG][1]);
    acc8:	8b 05 d2 46 01 00    	mov    0x146d2(%rip),%eax        # 1f3a0 <nextG>
    acce:	48 8d 0d 2b 3c 01 00 	lea    0x13c2b(%rip),%rcx        # 1e900 <image>
    acd5:	ba ff ff ff ff       	mov    $0xffffffff,%edx
    acda:	48 8b 3d ef 45 01 00 	mov    0x145ef(%rip),%rdi        # 1f2d0 <moon>
    ace1:	48 c1 e0 04          	shl    $0x4,%rax
    ace5:	48 8b 74 01 08       	mov    0x8(%rcx,%rax,1),%rsi
    acea:	e8 21 ce ff ff       	call   7b10 <waddnstr@plt>
    acef:	e9 d9 fe ff ff       	jmp    abcd <print_buggy+0x7d>
    acf4:	0f 1f 40 00          	nopl   0x0(%rax)
    mvwaddstr (moon, LINES-y-1, car_x, image[n+nextG][0]);
    acf8:	8b 05 a2 46 01 00    	mov    0x146a2(%rip),%eax        # 1f3a0 <nextG>
    acfe:	48 8d 0d fb 3b 01 00 	lea    0x13bfb(%rip),%rcx        # 1e900 <image>
    ad05:	ba ff ff ff ff       	mov    $0xffffffff,%edx
    ad0a:	48 8b 3d bf 45 01 00 	mov    0x145bf(%rip),%rdi        # 1f2d0 <moon>
    ad11:	48 c1 e0 04          	shl    $0x4,%rax
    ad15:	48 8b 34 01          	mov    (%rcx,%rax,1),%rsi
    ad19:	e8 f2 cd ff ff       	call   7b10 <waddnstr@plt>
    ad1e:	e9 87 fe ff ff       	jmp    abaa <print_buggy+0x5a>
    ad23:	0f 1f 44 00 00       	nopl   0x0(%rax,%rax,1)
    mvwaddstr (moon, LINES-y, car_x, image[n][1]);
    ad28:	89 d8                	mov    %ebx,%eax
    ad2a:	48 8d 0d cf 3b 01 00 	lea    0x13bcf(%rip),%rcx        # 1e900 <image>
    ad31:	ba ff ff ff ff       	mov    $0xffffffff,%edx
    ad36:	48 8b 3d 93 45 01 00 	mov    0x14593(%rip),%rdi        # 1f2d0 <moon>
    ad3d:	48 c1 e0 04          	shl    $0x4,%rax
    ad41:	48 8b 74 01 08       	mov    0x8(%rcx,%rax,1),%rsi
    ad46:	e8 c5 cd ff ff       	call   7b10 <waddnstr@plt>
    ad4b:	e9 f1 fe ff ff       	jmp    ac41 <print_buggy+0xf1>
    mvwaddstr (moon, LINES-y-1, car_x, image[n][0]);
    ad50:	89 d8                	mov    %ebx,%eax
    ad52:	48 8d 0d a7 3b 01 00 	lea    0x13ba7(%rip),%rcx        # 1e900 <image>
    ad59:	ba ff ff ff ff       	mov    $0xffffffff,%edx
    ad5e:	48 8b 3d 6b 45 01 00 	mov    0x1456b(%rip),%rdi        # 1f2d0 <moon>
    ad65:	48 c1 e0 04          	shl    $0x4,%rax
    ad69:	48 8b 34 01          	mov    (%rcx,%rax,1),%rsi
    ad6d:	e8 9e cd ff ff       	call   7b10 <waddnstr@plt>
    ad72:	e9 a7 fe ff ff       	jmp    ac1e <print_buggy+0xce>
    ad77:	66 0f 1f 84 00 00 00 	nopw   0x0(%rax,%rax,1)
    ad7e:	00 00 
    mvwaddstr (moon, LINES-car_y, car_x, "       ");
    ad80:	29 c6                	sub    %eax,%esi
    ad82:	e8 19 cd ff ff       	call   7aa0 <wmove@plt>
    ad87:	83 f8 ff             	cmp    $0xffffffff,%eax
    ad8a:	75 2b                	jne    adb7 <print_buggy+0x267>
    ad8c:	8b 15 02 46 01 00    	mov    0x14602(%rip),%edx        # 1f394 <car_x>
    ad92:	8b 35 c8 44 01 00    	mov    0x144c8(%rip),%esi        # 1f260 <LINES@NCURSES6_TINFO_5.0.19991023>
    ad98:	48 8b 3d 31 45 01 00 	mov    0x14531(%rip),%rdi        # 1f2d0 <moon>
    ad9f:	e9 e9 fd ff ff       	jmp    ab8d <print_buggy+0x3d>
    ada4:	0f 1f 40 00          	nopl   0x0(%rax)
    mvwaddstr (moon, LINES-car_y-1, car_x, "       ");
    ada8:	29 c6                	sub    %eax,%esi
    adaa:	83 ee 01             	sub    $0x1,%esi
    adad:	e8 ee cc ff ff       	call   7aa0 <wmove@plt>
    adb2:	83 f8 ff             	cmp    $0xffffffff,%eax
    adb5:	74 d5                	je     ad8c <print_buggy+0x23c>
    mvwaddstr (moon, LINES-car_y, car_x, "       ");
    adb7:	48 8b 3d 12 45 01 00 	mov    0x14512(%rip),%rdi        # 1f2d0 <moon>
    adbe:	ba ff ff ff ff       	mov    $0xffffffff,%edx
    adc3:	48 8d 35 e0 eb 00 00 	lea    0xebe0(%rip),%rsi        # 199aa <__PRETTY_FUNCTION__.4+0x13a>
    adca:	e8 41 cd ff ff       	call   7b10 <waddnstr@plt>
    adcf:	eb bb                	jmp    ad8c <print_buggy+0x23c>
    add1:	0f 1f 80 00 00 00 00 	nopl   0x0(%rax)
    if (ground2[car_x+1] == ' ')  mvwaddch (moon, LINES-4, car_x+1, 'o');
    add8:	8b 05 82 44 01 00    	mov    0x14482(%rip),%eax        # 1f260 <LINES@NCURSES6_TINFO_5.0.19991023>
    adde:	83 c2 01             	add    $0x1,%edx
    ade1:	8d 70 fc             	lea    -0x4(%rax),%esi
    ade4:	e8 b7 cc ff ff       	call   7aa0 <wmove@plt>
    ade9:	83 f8 ff             	cmp    $0xffffffff,%eax
    adec:	75 22                	jne    ae10 <print_buggy+0x2c0>
    if (ground2[car_x+5] == ' ')  mvwaddch (moon, LINES-4, car_x+5, 'o');
    adee:	48 63 05 9f 45 01 00 	movslq 0x1459f(%rip),%rax        # 1f394 <car_x>
    adf5:	48 8b 0d 74 45 01 00 	mov    0x14574(%rip),%rcx        # 1f370 <ground2>
    adfc:	48 8b 3d cd 44 01 00 	mov    0x144cd(%rip),%rdi        # 1f2d0 <moon>
    ae03:	48 89 c2             	mov    %rax,%rdx
    ae06:	e9 72 fe ff ff       	jmp    ac7d <print_buggy+0x12d>
    ae0b:	0f 1f 44 00 00       	nopl   0x0(%rax,%rax,1)
    if (ground2[car_x+1] == ' ')  mvwaddch (moon, LINES-4, car_x+1, 'o');
    ae10:	48 8b 3d b9 44 01 00 	mov    0x144b9(%rip),%rdi        # 1f2d0 <moon>
    ae17:	be 6f 00 00 00       	mov    $0x6f,%esi
    ae1c:	e8 3f cb ff ff       	call   7960 <waddch@plt>
    ae21:	eb cb                	jmp    adee <print_buggy+0x29e>
    ae23:	66 66 2e 0f 1f 84 00 	data16 cs nopw 0x0(%rax,%rax,1)
    ae2a:	00 00 00 00 
    ae2e:	66 90                	xchg   %ax,%ax

000000000000ae30 <jump_handler>:
 * handle the jumps
 */

static void
jump_handler (game_time t, void *client_data)
{
    ae30:	f3 0f 1e fa          	endbr64 
    ae34:	48 83 ec 18          	sub    $0x18,%rsp
  state = client_data;
  if (car_y > 5 && state->y == 5) {
    ae38:	83 3d 51 45 01 00 05 	cmpl   $0x5,0x14551(%rip)        # 1f390 <car_y>
  state = client_data;
    ae3f:	48 89 3d 62 45 01 00 	mov    %rdi,0x14562(%rip)        # 1f3a8 <state>
{
    ae46:	f2 0f 11 44 24 08    	movsd  %xmm0,0x8(%rsp)
  if (car_y > 5 && state->y == 5) {
    ae4c:	7e 06                	jle    ae54 <jump_handler+0x24>
    ae4e:	83 7f 04 05          	cmpl   $0x5,0x4(%rdi)
    ae52:	74 44                	je     ae98 <jump_handler+0x68>
      state = sz_sit;
      start_wheel ();
      crash_detected = 1;
    }
  }
  print_buggy ();
    ae54:	e8 f7 fc ff ff       	call   ab50 <print_buggy>
  if (state->dt >= -0.5) {
    ae59:	48 8b 35 48 45 01 00 	mov    0x14548(%rip),%rsi        # 1f3a8 <state>
